
C:/Users/mike/Documents/PicoCbook/C18/tear/build/tear.elf:     file format elf32-littlearm

Sections:
Idx Name          Size      VMA       LMA       File off  Algn
  0 .text         00004e60  10000000  10000000  00001000  2**4
                  CONTENTS, ALLOC, LOAD, READONLY, CODE
  1 .rodata       00000188  10004e60  10004e60  00005e60  2**2
                  CONTENTS, ALLOC, LOAD, READONLY, DATA
  2 .ARM.exidx    00000008  10004fe8  10004fe8  00005fe8  2**2
                  CONTENTS, ALLOC, LOAD, READONLY, DATA
  3 .binary_info  0000002c  10004ff0  10004ff0  00005ff0  2**2
                  CONTENTS, ALLOC, LOAD, READONLY, DATA
  4 .ram_vector_table 00000110  20000000  20000000  00008000  2**2
                  ALLOC
  5 .uninitialized_data 00000000  20000110  20000110  000075a8  2**0
                  CONTENTS
  6 .data         00000578  20000110  1000501c  00006110  2**3
                  CONTENTS, ALLOC, LOAD, READONLY, CODE
  7 .tdata        00000000  20000688  20000688  000075a8  2**0
                  CONTENTS, ALLOC, LOAD, DATA, THREAD_LOCAL
  8 .tbss         00000000  20000688  20000688  00000000  2**0
                  ALLOC, THREAD_LOCAL
  9 .bss          00020614  20000688  10005594  00007688  2**3
                  ALLOC
 10 .heap         00000800  20020c9c  20020c9c  000075a8  2**2
                  CONTENTS, READONLY
 11 .scratch_x    00000000  20080000  20080000  00007da8  2**0
                  CONTENTS
 12 .scratch_y    00000000  20081000  20081000  00007da8  2**0
                  CONTENTS
 13 .stack1_dummy 00000800  20080000  20080000  00008000  2**2
                  ALLOC
 14 .stack_dummy  00000800  20081000  20081000  00007dc0  2**5
                  CONTENTS, READONLY
 15 .flash_end    00000014  10005594  10005594  00007594  2**2
                  CONTENTS, ALLOC, LOAD, READONLY, DATA
 16 .ARM.attributes 00000034  00000000  00000000  000085c0  2**0
                  CONTENTS, READONLY
 17 .comment      00000045  00000000  00000000  000085f4  2**0
                  CONTENTS, READONLY
 18 .debug_info   00037391  00000000  00000000  00008639  2**0
                  CONTENTS, READONLY, DEBUGGING, OCTETS
 19 .debug_abbrev 00007c1e  00000000  00000000  0003f9ca  2**0
                  CONTENTS, READONLY, DEBUGGING, OCTETS
 20 .debug_aranges 00001320  00000000  00000000  000475e8  2**3
                  CONTENTS, READONLY, DEBUGGING, OCTETS
 21 .debug_rnglists 0000562c  00000000  00000000  00048908  2**0
                  CONTENTS, READONLY, DEBUGGING, OCTETS
 22 .debug_line   000289bf  00000000  00000000  0004df34  2**0
                  CONTENTS, READONLY, DEBUGGING, OCTETS
 23 .debug_str    00008c23  00000000  00000000  000768f3  2**0
                  CONTENTS, READONLY, DEBUGGING, OCTETS
 24 .debug_frame  00003b50  00000000  00000000  0007f518  2**2
                  CONTENTS, READONLY, DEBUGGING, OCTETS
 25 .debug_loclists 0001bfa2  00000000  00000000  00083068  2**0
                  CONTENTS, READONLY, DEBUGGING, OCTETS
 26 .debug_line_str 00000237  00000000  00000000  0009f00a  2**0
                  CONTENTS, READONLY, DEBUGGING, OCTETS

C:/Users/mike/Documents/PicoCbook/C18/tear/build/tear.elf:     file format elf32-littlearm


Disassembly of section .text:

10000000 <__VECTOR_TABLE>:
10000000:	20082000 	.word	0x20082000
10000004:	1000015d 	.word	0x1000015d
10000008:	10000113 	.word	0x10000113
1000000c:	10000115 	.word	0x10000115
10000010:	10000111 	.word	0x10000111
10000014:	10000111 	.word	0x10000111
10000018:	10000111 	.word	0x10000111
1000001c:	10000111 	.word	0x10000111
10000020:	10000111 	.word	0x10000111
10000024:	10000111 	.word	0x10000111
10000028:	10000111 	.word	0x10000111
1000002c:	10000117 	.word	0x10000117
10000030:	10000111 	.word	0x10000111
10000034:	10000111 	.word	0x10000111
10000038:	10000119 	.word	0x10000119
1000003c:	1000011b 	.word	0x1000011b
10000040:	1000011d 	.word	0x1000011d
10000044:	1000011d 	.word	0x1000011d
10000048:	1000011d 	.word	0x1000011d
1000004c:	1000011d 	.word	0x1000011d
10000050:	1000011d 	.word	0x1000011d
10000054:	1000011d 	.word	0x1000011d
10000058:	1000011d 	.word	0x1000011d
1000005c:	1000011d 	.word	0x1000011d
10000060:	1000011d 	.word	0x1000011d
10000064:	1000011d 	.word	0x1000011d
10000068:	1000011d 	.word	0x1000011d
1000006c:	1000011d 	.word	0x1000011d
10000070:	1000011d 	.word	0x1000011d
10000074:	1000011d 	.word	0x1000011d
10000078:	1000011d 	.word	0x1000011d
1000007c:	1000011d 	.word	0x1000011d
10000080:	1000011d 	.word	0x1000011d
10000084:	1000011d 	.word	0x1000011d
10000088:	1000011d 	.word	0x1000011d
1000008c:	1000011d 	.word	0x1000011d
10000090:	1000011d 	.word	0x1000011d
10000094:	1000011d 	.word	0x1000011d
10000098:	1000011d 	.word	0x1000011d
1000009c:	1000011d 	.word	0x1000011d
100000a0:	1000011d 	.word	0x1000011d
100000a4:	1000011d 	.word	0x1000011d
100000a8:	1000011d 	.word	0x1000011d
100000ac:	1000011d 	.word	0x1000011d
100000b0:	1000011d 	.word	0x1000011d
100000b4:	1000011d 	.word	0x1000011d
100000b8:	1000011d 	.word	0x1000011d
100000bc:	1000011d 	.word	0x1000011d
100000c0:	1000011d 	.word	0x1000011d
100000c4:	1000011d 	.word	0x1000011d
100000c8:	1000011d 	.word	0x1000011d
100000cc:	1000011d 	.word	0x1000011d
100000d0:	1000011d 	.word	0x1000011d
100000d4:	1000011d 	.word	0x1000011d
100000d8:	1000011d 	.word	0x1000011d
100000dc:	1000011d 	.word	0x1000011d
100000e0:	1000011d 	.word	0x1000011d
100000e4:	1000011d 	.word	0x1000011d
100000e8:	1000011d 	.word	0x1000011d
100000ec:	1000011d 	.word	0x1000011d
100000f0:	1000011d 	.word	0x1000011d
100000f4:	1000011d 	.word	0x1000011d
100000f8:	1000011d 	.word	0x1000011d
100000fc:	1000011d 	.word	0x1000011d
10000100:	1000011d 	.word	0x1000011d
10000104:	1000011d 	.word	0x1000011d
10000108:	1000011d 	.word	0x1000011d
1000010c:	1000011d 	.word	0x1000011d

10000110 <isr_invalid>:
10000110:	be00      	bkpt	0x0000

10000112 <isr_nmi>:
10000112:	be00      	bkpt	0x0000

10000114 <isr_hardfault>:
10000114:	be00      	bkpt	0x0000

10000116 <isr_svcall>:
10000116:	be00      	bkpt	0x0000

10000118 <isr_pendsv>:
10000118:	be00      	bkpt	0x0000

1000011a <isr_systick>:
1000011a:	be00      	bkpt	0x0000

1000011c <__unhandled_user_irq>:
1000011c:	f3ef 8005 	mrs	r0, IPSR
10000120:	3810      	subs	r0, #16

10000122 <unhandled_user_irq_num_in_r0>:
10000122:	be00      	bkpt	0x0000

10000124 <binary_info_header>:
10000124:	7188ebf2 	.word	0x7188ebf2
10000128:	10004ff0 	.word	0x10004ff0
1000012c:	1000501c 	.word	0x1000501c
10000130:	100001a8 	.word	0x100001a8
10000134:	e71aa390 	.word	0xe71aa390

10000138 <__binary_info_header_end>:
10000138:	ffffded3 	.word	0xffffded3
1000013c:	10210142 	.word	0x10210142
10000140:	000001ff 	.word	0x000001ff
10000144:	0000545c 	.word	0x0000545c
10000148:	ab123579 	.word	0xab123579

1000014c <_entry_point>:
1000014c:	f04f 0000 	mov.w	r0, #0

10000150 <_enter_vtable_in_r0>:
10000150:	4920      	ldr	r1, [pc, #128]	@ (100001d4 <data_cpy_table+0x2c>)
10000152:	6008      	str	r0, [r1, #0]
10000154:	c806      	ldmia	r0!, {r1, r2}
10000156:	f381 8808 	msr	MSP, r1
1000015a:	4710      	bx	r2

1000015c <_reset_handler>:
1000015c:	f04f 4050 	mov.w	r0, #3489660928	@ 0xd0000000
10000160:	6800      	ldr	r0, [r0, #0]
10000162:	b110      	cbz	r0, 1000016a <hold_non_core0_in_bootrom+0x6>

10000164 <hold_non_core0_in_bootrom>:
10000164:	f04f 0000 	mov.w	r0, #0
10000168:	e7f2      	b.n	10000150 <_enter_vtable_in_r0>
1000016a:	a40f      	add	r4, pc, #60	@ (adr r4, 100001a8 <data_cpy_table>)
1000016c:	cc0e      	ldmia	r4!, {r1, r2, r3}
1000016e:	2900      	cmp	r1, #0
10000170:	d002      	beq.n	10000178 <hold_non_core0_in_bootrom+0x14>
10000172:	f000 f815 	bl	100001a0 <data_cpy>
10000176:	e7f9      	b.n	1000016c <hold_non_core0_in_bootrom+0x8>
10000178:	4917      	ldr	r1, [pc, #92]	@ (100001d8 <data_cpy_table+0x30>)
1000017a:	4a18      	ldr	r2, [pc, #96]	@ (100001dc <data_cpy_table+0x34>)
1000017c:	2000      	movs	r0, #0
1000017e:	e000      	b.n	10000182 <bss_fill_test>

10000180 <bss_fill_loop>:
10000180:	c101      	stmia	r1!, {r0}

10000182 <bss_fill_test>:
10000182:	4291      	cmp	r1, r2
10000184:	d1fc      	bne.n	10000180 <bss_fill_loop>

10000186 <platform_entry>:
10000186:	2000      	movs	r0, #0
10000188:	f380 880a 	msr	MSPLIM, r0
1000018c:	4914      	ldr	r1, [pc, #80]	@ (100001e0 <data_cpy_table+0x38>)
1000018e:	4788      	blx	r1
10000190:	4914      	ldr	r1, [pc, #80]	@ (100001e4 <data_cpy_table+0x3c>)
10000192:	4788      	blx	r1
10000194:	4914      	ldr	r1, [pc, #80]	@ (100001e8 <data_cpy_table+0x40>)
10000196:	4788      	blx	r1
10000198:	be00      	bkpt	0x0000
1000019a:	e7fd      	b.n	10000198 <platform_entry+0x12>

1000019c <data_cpy_loop>:
1000019c:	c901      	ldmia	r1!, {r0}
1000019e:	c201      	stmia	r2!, {r0}

100001a0 <data_cpy>:
100001a0:	429a      	cmp	r2, r3
100001a2:	d3fb      	bcc.n	1000019c <data_cpy_loop>
100001a4:	4770      	bx	lr
100001a6:	bf00      	nop

100001a8 <data_cpy_table>:
100001a8:	1000501c 	.word	0x1000501c
100001ac:	20000110 	.word	0x20000110
100001b0:	20000688 	.word	0x20000688
100001b4:	10005594 	.word	0x10005594
100001b8:	20080000 	.word	0x20080000
100001bc:	20080000 	.word	0x20080000
100001c0:	10005594 	.word	0x10005594
100001c4:	20081000 	.word	0x20081000
100001c8:	20081000 	.word	0x20081000
100001cc:	00000000 	.word	0x00000000
100001d0:	4770      	bx	lr
100001d2:	0000      	.short	0x0000
100001d4:	e000ed08 	.word	0xe000ed08
100001d8:	20000688 	.word	0x20000688
100001dc:	20020c9c 	.word	0x20020c9c
100001e0:	10001665 	.word	0x10001665
100001e4:	100002fd 	.word	0x100002fd
100001e8:	1000165d 	.word	0x1000165d

100001ec <_init>:
100001ec:	b5f8      	push	{r3, r4, r5, r6, r7, lr}
100001ee:	bf00      	nop

100001f0 <register_tm_clones>:
100001f0:	4b06      	ldr	r3, [pc, #24]	@ (1000020c <register_tm_clones+0x1c>)
100001f2:	4907      	ldr	r1, [pc, #28]	@ (10000210 <register_tm_clones+0x20>)
100001f4:	1ac9      	subs	r1, r1, r3
100001f6:	1089      	asrs	r1, r1, #2
100001f8:	bf48      	it	mi
100001fa:	3101      	addmi	r1, #1
100001fc:	1049      	asrs	r1, r1, #1
100001fe:	d003      	beq.n	10000208 <register_tm_clones+0x18>
10000200:	4b04      	ldr	r3, [pc, #16]	@ (10000214 <register_tm_clones+0x24>)
10000202:	b10b      	cbz	r3, 10000208 <register_tm_clones+0x18>
10000204:	4801      	ldr	r0, [pc, #4]	@ (1000020c <register_tm_clones+0x1c>)
10000206:	4718      	bx	r3
10000208:	4770      	bx	lr
1000020a:	bf00      	nop
1000020c:	20000688 	.word	0x20000688
10000210:	20000688 	.word	0x20000688
10000214:	00000000 	.word	0x00000000

10000218 <frame_dummy>:
10000218:	b508      	push	{r3, lr}
1000021a:	4b05      	ldr	r3, [pc, #20]	@ (10000230 <frame_dummy+0x18>)
1000021c:	b11b      	cbz	r3, 10000226 <frame_dummy+0xe>
1000021e:	4905      	ldr	r1, [pc, #20]	@ (10000234 <frame_dummy+0x1c>)
10000220:	4805      	ldr	r0, [pc, #20]	@ (10000238 <frame_dummy+0x20>)
10000222:	f3af 8000 	nop.w
10000226:	e8bd 4008 	ldmia.w	sp!, {r3, lr}
1000022a:	f7ff bfe1 	b.w	100001f0 <register_tm_clones>
1000022e:	bf00      	nop
10000230:	00000000 	.word	0x00000000
10000234:	200008b8 	.word	0x200008b8
10000238:	10004e60 	.word	0x10004e60

1000023c <gpio_put>:
1000023c:	b480      	push	{r7}
1000023e:	b085      	sub	sp, #20
10000240:	af00      	add	r7, sp, #0
10000242:	6078      	str	r0, [r7, #4]
10000244:	460b      	mov	r3, r1
10000246:	70fb      	strb	r3, [r7, #3]
10000248:	687b      	ldr	r3, [r7, #4]
1000024a:	60fb      	str	r3, [r7, #12]
1000024c:	78fb      	ldrb	r3, [r7, #3]
1000024e:	72fb      	strb	r3, [r7, #11]
10000250:	68fb      	ldr	r3, [r7, #12]
10000252:	7afa      	ldrb	r2, [r7, #11]
10000254:	ec42 3040 	gpioc_bit_out_put r3, r2
10000258:	bf00      	nop
1000025a:	bf00      	nop
1000025c:	3714      	adds	r7, #20
1000025e:	46bd      	mov	sp, r7
10000260:	f85d 7b04 	ldr.w	r7, [sp], #4
10000264:	4770      	bx	lr
10000266:	bf00      	nop

10000268 <gpio_set_dir>:
10000268:	b480      	push	{r7}
1000026a:	b085      	sub	sp, #20
1000026c:	af00      	add	r7, sp, #0
1000026e:	6078      	str	r0, [r7, #4]
10000270:	460b      	mov	r3, r1
10000272:	70fb      	strb	r3, [r7, #3]
10000274:	687b      	ldr	r3, [r7, #4]
10000276:	60fb      	str	r3, [r7, #12]
10000278:	78fb      	ldrb	r3, [r7, #3]
1000027a:	72fb      	strb	r3, [r7, #11]
1000027c:	68fb      	ldr	r3, [r7, #12]
1000027e:	7afa      	ldrb	r2, [r7, #11]
10000280:	ec42 3044 	gpioc_bit_oe_put r3, r2
10000284:	bf00      	nop
10000286:	bf00      	nop
10000288:	3714      	adds	r7, #20
1000028a:	46bd      	mov	sp, r7
1000028c:	f85d 7b04 	ldr.w	r7, [sp], #4
10000290:	4770      	bx	lr
10000292:	bf00      	nop

10000294 <task0>:
10000294:	b580      	push	{r7, lr}
10000296:	b082      	sub	sp, #8
10000298:	af00      	add	r7, sp, #0
1000029a:	6078      	str	r0, [r7, #4]
1000029c:	4909      	ldr	r1, [pc, #36]	@ (100002c4 <task0+0x30>)
1000029e:	f04f 0200 	mov.w	r2, #0
100002a2:	f04f 0300 	mov.w	r3, #0
100002a6:	e9c1 2300 	strd	r2, r3, [r1]
100002aa:	4906      	ldr	r1, [pc, #24]	@ (100002c4 <task0+0x30>)
100002ac:	f04f 32ff 	mov.w	r2, #4294967295
100002b0:	f04f 33ff 	mov.w	r3, #4294967295
100002b4:	e9c1 2300 	strd	r2, r3, [r1]
100002b8:	2100      	movs	r1, #0
100002ba:	2002      	movs	r0, #2
100002bc:	f7ff ffbe 	bl	1000023c <gpio_put>
100002c0:	e7ec      	b.n	1000029c <task0+0x8>
100002c2:	bf00      	nop
100002c4:	20000808 	.word	0x20000808

100002c8 <task1>:
100002c8:	b580      	push	{r7, lr}
100002ca:	b082      	sub	sp, #8
100002cc:	af00      	add	r7, sp, #0
100002ce:	6078      	str	r0, [r7, #4]
100002d0:	4b09      	ldr	r3, [pc, #36]	@ (100002f8 <task1+0x30>)
100002d2:	e9d3 2300 	ldrd	r2, r3, [r3]
100002d6:	f1b3 3fff 	cmp.w	r3, #4294967295
100002da:	bf08      	it	eq
100002dc:	f1b2 3fff 	cmpeq.w	r2, #4294967295
100002e0:	d0f6      	beq.n	100002d0 <task1+0x8>
100002e2:	4b05      	ldr	r3, [pc, #20]	@ (100002f8 <task1+0x30>)
100002e4:	e9d3 2300 	ldrd	r2, r3, [r3]
100002e8:	4313      	orrs	r3, r2
100002ea:	d0f1      	beq.n	100002d0 <task1+0x8>
100002ec:	2101      	movs	r1, #1
100002ee:	2002      	movs	r0, #2
100002f0:	f7ff ffa4 	bl	1000023c <gpio_put>
100002f4:	e7ec      	b.n	100002d0 <task1+0x8>
100002f6:	bf00      	nop
100002f8:	20000808 	.word	0x20000808

100002fc <main>:
100002fc:	b580      	push	{r7, lr}
100002fe:	b086      	sub	sp, #24
10000300:	af02      	add	r7, sp, #8
10000302:	f001 faa7 	bl	10001854 <stdio_init_all>
10000306:	2002      	movs	r0, #2
10000308:	f000 f85a 	bl	100003c0 <gpio_init>
1000030c:	2101      	movs	r1, #1
1000030e:	2002      	movs	r0, #2
10000310:	f7ff ffaa 	bl	10000268 <gpio_set_dir>
10000314:	200a      	movs	r0, #10
10000316:	f000 fdc9 	bl	10000eac <sleep_ms>
1000031a:	f107 0308 	add.w	r3, r7, #8
1000031e:	9301      	str	r3, [sp, #4]
10000320:	2301      	movs	r3, #1
10000322:	9300      	str	r3, [sp, #0]
10000324:	2300      	movs	r3, #0
10000326:	f44f 6200 	mov.w	r2, #2048	@ 0x800
1000032a:	4912      	ldr	r1, [pc, #72]	@ (10000374 <main+0x78>)
1000032c:	4812      	ldr	r0, [pc, #72]	@ (10000378 <main+0x7c>)
1000032e:	f003 fe7f 	bl	10004030 <xTaskCreate>
10000332:	2301      	movs	r3, #1
10000334:	60fb      	str	r3, [r7, #12]
10000336:	68bb      	ldr	r3, [r7, #8]
10000338:	68f9      	ldr	r1, [r7, #12]
1000033a:	4618      	mov	r0, r3
1000033c:	f003 f82c 	bl	10003398 <vTaskCoreAffinitySet>
10000340:	1d3b      	adds	r3, r7, #4
10000342:	9301      	str	r3, [sp, #4]
10000344:	2301      	movs	r3, #1
10000346:	9300      	str	r3, [sp, #0]
10000348:	2300      	movs	r3, #0
1000034a:	f44f 6200 	mov.w	r2, #2048	@ 0x800
1000034e:	490b      	ldr	r1, [pc, #44]	@ (1000037c <main+0x80>)
10000350:	480b      	ldr	r0, [pc, #44]	@ (10000380 <main+0x84>)
10000352:	f003 fe6d 	bl	10004030 <xTaskCreate>
10000356:	2302      	movs	r3, #2
10000358:	60fb      	str	r3, [r7, #12]
1000035a:	687b      	ldr	r3, [r7, #4]
1000035c:	68f9      	ldr	r1, [r7, #12]
1000035e:	4618      	mov	r0, r3
10000360:	f003 f81a 	bl	10003398 <vTaskCoreAffinitySet>
10000364:	f003 fe8e 	bl	10004084 <vTaskStartScheduler>
10000368:	2300      	movs	r3, #0
1000036a:	4618      	mov	r0, r3
1000036c:	3710      	adds	r7, #16
1000036e:	46bd      	mov	sp, r7
10000370:	bd80      	pop	{r7, pc}
10000372:	bf00      	nop
10000374:	10004e60 	.word	0x10004e60
10000378:	10000295 	.word	0x10000295
1000037c:	10004e68 	.word	0x10004e68
10000380:	100002c9 	.word	0x100002c9

10000384 <gpio_set_function>:
10000384:	b410      	push	{r4}
10000386:	f44f 7480 	mov.w	r4, #256	@ 0x100
1000038a:	4b0c      	ldr	r3, [pc, #48]	@ (100003bc <gpio_set_function+0x38>)
1000038c:	f853 2020 	ldr.w	r2, [r3, r0, lsl #2]
10000390:	eb03 0380 	add.w	r3, r3, r0, lsl #2
10000394:	00c0      	lsls	r0, r0, #3
10000396:	f082 0240 	eor.w	r2, r2, #64	@ 0x40
1000039a:	f100 4080 	add.w	r0, r0, #1073741824	@ 0x40000000
1000039e:	f503 5c80 	add.w	ip, r3, #4096	@ 0x1000
100003a2:	f002 02c0 	and.w	r2, r2, #192	@ 0xc0
100003a6:	f500 3020 	add.w	r0, r0, #163840	@ 0x28000
100003aa:	f503 5340 	add.w	r3, r3, #12288	@ 0x3000
100003ae:	f8cc 2000 	str.w	r2, [ip]
100003b2:	6041      	str	r1, [r0, #4]
100003b4:	601c      	str	r4, [r3, #0]
100003b6:	f85d 4b04 	ldr.w	r4, [sp], #4
100003ba:	4770      	bx	lr
100003bc:	40038004 	.word	0x40038004

100003c0 <gpio_init>:
100003c0:	b430      	push	{r4, r5}
100003c2:	f04f 0300 	mov.w	r3, #0
100003c6:	ec43 0044 	gpioc_bit_oe_put r0, r3
100003ca:	ec43 0040 	gpioc_bit_out_put r0, r3
100003ce:	2505      	movs	r5, #5
100003d0:	f44f 7480 	mov.w	r4, #256	@ 0x100
100003d4:	4b0b      	ldr	r3, [pc, #44]	@ (10000404 <gpio_init+0x44>)
100003d6:	00c2      	lsls	r2, r0, #3
100003d8:	f853 1020 	ldr.w	r1, [r3, r0, lsl #2]
100003dc:	eb03 0080 	add.w	r0, r3, r0, lsl #2
100003e0:	f081 0140 	eor.w	r1, r1, #64	@ 0x40
100003e4:	f102 4380 	add.w	r3, r2, #1073741824	@ 0x40000000
100003e8:	f503 3320 	add.w	r3, r3, #163840	@ 0x28000
100003ec:	f001 02c0 	and.w	r2, r1, #192	@ 0xc0
100003f0:	f500 5180 	add.w	r1, r0, #4096	@ 0x1000
100003f4:	f500 5040 	add.w	r0, r0, #12288	@ 0x3000
100003f8:	600a      	str	r2, [r1, #0]
100003fa:	605d      	str	r5, [r3, #4]
100003fc:	6004      	str	r4, [r0, #0]
100003fe:	bc30      	pop	{r4, r5}
10000400:	4770      	bx	lr
10000402:	bf00      	nop
10000404:	40038004 	.word	0x40038004

10000408 <panic>:
10000408:	b40f      	push	{r0, r1, r2, r3}
1000040a:	b500      	push	{lr}
1000040c:	b083      	sub	sp, #12
1000040e:	9c04      	ldr	r4, [sp, #16]
10000410:	4807      	ldr	r0, [pc, #28]	@ (10000430 <panic+0x28>)
10000412:	f001 fa67 	bl	100018e4 <__wrap_puts>
10000416:	b13c      	cbz	r4, 10000428 <panic+0x20>
10000418:	a905      	add	r1, sp, #20
1000041a:	4620      	mov	r0, r4
1000041c:	9101      	str	r1, [sp, #4]
1000041e:	f001 f903 	bl	10001628 <weak_raw_vprintf>
10000422:	4804      	ldr	r0, [pc, #16]	@ (10000434 <panic+0x2c>)
10000424:	f001 fa5e 	bl	100018e4 <__wrap_puts>
10000428:	2001      	movs	r0, #1
1000042a:	f001 f915 	bl	10001658 <_exit>
1000042e:	bf00      	nop
10000430:	10004e70 	.word	0x10004e70
10000434:	10004e80 	.word	0x10004e80

10000438 <hw_claim_lock>:
10000438:	f3ef 8010 	mrs	r0, PRIMASK
1000043c:	b672      	cpsid	i
1000043e:	4b06      	ldr	r3, [pc, #24]	@ (10000458 <hw_claim_lock+0x20>)
10000440:	e8d3 1fcf 	ldaexb	r1, [r3]
10000444:	2201      	movs	r2, #1
10000446:	2900      	cmp	r1, #0
10000448:	d1fa      	bne.n	10000440 <hw_claim_lock+0x8>
1000044a:	e8c3 2f41 	strexb	r1, r2, [r3]
1000044e:	2900      	cmp	r1, #0
10000450:	d1f6      	bne.n	10000440 <hw_claim_lock+0x8>
10000452:	f3bf 8f5f 	dmb	sy
10000456:	4770      	bx	lr
10000458:	2000085b 	.word	0x2000085b

1000045c <hw_claim_unlock>:
1000045c:	2300      	movs	r3, #0
1000045e:	4a03      	ldr	r2, [pc, #12]	@ (1000046c <hw_claim_unlock+0x10>)
10000460:	e8c2 3f8f 	stlb	r3, [r2]
10000464:	f380 8810 	msr	PRIMASK, r0
10000468:	4770      	bx	lr
1000046a:	bf00      	nop
1000046c:	2000085b 	.word	0x2000085b

10000470 <hw_claim_or_assert>:
10000470:	b570      	push	{r4, r5, r6, lr}
10000472:	4686      	mov	lr, r0
10000474:	f3ef 8510 	mrs	r5, PRIMASK
10000478:	b672      	cpsid	i
1000047a:	4c12      	ldr	r4, [pc, #72]	@ (100004c4 <hw_claim_or_assert+0x54>)
1000047c:	e8d4 6fcf 	ldaexb	r6, [r4]
10000480:	2001      	movs	r0, #1
10000482:	2e00      	cmp	r6, #0
10000484:	d1fa      	bne.n	1000047c <hw_claim_or_assert+0xc>
10000486:	e8c4 0f46 	strexb	r6, r0, [r4]
1000048a:	2e00      	cmp	r6, #0
1000048c:	d1f6      	bne.n	1000047c <hw_claim_or_assert+0xc>
1000048e:	f3bf 8f5f 	dmb	sy
10000492:	f04f 0c01 	mov.w	ip, #1
10000496:	08c8      	lsrs	r0, r1, #3
10000498:	f001 0307 	and.w	r3, r1, #7
1000049c:	fa0c f303 	lsl.w	r3, ip, r3
100004a0:	f81e c000 	ldrb.w	ip, [lr, r0]
100004a4:	ea1c 0603 	ands.w	r6, ip, r3
100004a8:	d108      	bne.n	100004bc <hw_claim_or_assert+0x4c>
100004aa:	ea4c 0c03 	orr.w	ip, ip, r3
100004ae:	f80e c000 	strb.w	ip, [lr, r0]
100004b2:	e8c4 6f8f 	stlb	r6, [r4]
100004b6:	f385 8810 	msr	PRIMASK, r5
100004ba:	bd70      	pop	{r4, r5, r6, pc}
100004bc:	4610      	mov	r0, r2
100004be:	f7ff ffa3 	bl	10000408 <panic>
100004c2:	bf00      	nop
100004c4:	2000085b 	.word	0x2000085b

100004c8 <next_striped_spin_lock_num>:
100004c8:	4a04      	ldr	r2, [pc, #16]	@ (100004dc <next_striped_spin_lock_num+0x14>)
100004ca:	7810      	ldrb	r0, [r2, #0]
100004cc:	1c43      	adds	r3, r0, #1
100004ce:	b2db      	uxtb	r3, r3
100004d0:	2b18      	cmp	r3, #24
100004d2:	bf28      	it	cs
100004d4:	2310      	movcs	r3, #16
100004d6:	7013      	strb	r3, [r2, #0]
100004d8:	4770      	bx	lr
100004da:	bf00      	nop
100004dc:	200005f8 	.word	0x200005f8

100004e0 <spin_lock_claim>:
100004e0:	4601      	mov	r1, r0
100004e2:	4a02      	ldr	r2, [pc, #8]	@ (100004ec <spin_lock_claim+0xc>)
100004e4:	4802      	ldr	r0, [pc, #8]	@ (100004f0 <spin_lock_claim+0x10>)
100004e6:	f7ff bfc3 	b.w	10000470 <hw_claim_or_assert>
100004ea:	bf00      	nop
100004ec:	10004e84 	.word	0x10004e84
100004f0:	20000878 	.word	0x20000878

100004f4 <spinlock_set_extexclall>:
100004f4:	f04f 22e0 	mov.w	r2, #3758153728	@ 0xe000e000
100004f8:	6893      	ldr	r3, [r2, #8]
100004fa:	f043 5300 	orr.w	r3, r3, #536870912	@ 0x20000000
100004fe:	6093      	str	r3, [r2, #8]
10000500:	4770      	bx	lr
10000502:	bf00      	nop

10000504 <spin_locks_reset>:
10000504:	2100      	movs	r1, #0
10000506:	4b04      	ldr	r3, [pc, #16]	@ (10000518 <spin_locks_reset+0x14>)
10000508:	f103 0220 	add.w	r2, r3, #32
1000050c:	e8c3 1f8f 	stlb	r1, [r3]
10000510:	3301      	adds	r3, #1
10000512:	4293      	cmp	r3, r2
10000514:	d1fa      	bne.n	1000050c <spin_locks_reset+0x8>
10000516:	4770      	bx	lr
10000518:	20000850 	.word	0x20000850

1000051c <runtime_init_per_core_irq_priorities>:
1000051c:	f04f 23e0 	mov.w	r3, #3758153728	@ 0xe000e000
10000520:	f04f 3280 	mov.w	r2, #2155905152	@ 0x80808080
10000524:	f8c3 2400 	str.w	r2, [r3, #1024]	@ 0x400
10000528:	f8c3 2404 	str.w	r2, [r3, #1028]	@ 0x404
1000052c:	f8c3 2408 	str.w	r2, [r3, #1032]	@ 0x408
10000530:	f8c3 240c 	str.w	r2, [r3, #1036]	@ 0x40c
10000534:	f8c3 2410 	str.w	r2, [r3, #1040]	@ 0x410
10000538:	f8c3 2414 	str.w	r2, [r3, #1044]	@ 0x414
1000053c:	f8c3 2418 	str.w	r2, [r3, #1048]	@ 0x418
10000540:	f8c3 241c 	str.w	r2, [r3, #1052]	@ 0x41c
10000544:	f8c3 2420 	str.w	r2, [r3, #1056]	@ 0x420
10000548:	f8c3 2424 	str.w	r2, [r3, #1060]	@ 0x424
1000054c:	f8c3 2428 	str.w	r2, [r3, #1064]	@ 0x428
10000550:	f8c3 242c 	str.w	r2, [r3, #1068]	@ 0x42c
10000554:	f8c3 2430 	str.w	r2, [r3, #1072]	@ 0x430
10000558:	4770      	bx	lr
1000055a:	bf00      	nop

1000055c <irq_set_enabled>:
1000055c:	2301      	movs	r3, #1
1000055e:	f000 021f 	and.w	r2, r0, #31
10000562:	4093      	lsls	r3, r2
10000564:	0940      	lsrs	r0, r0, #5
10000566:	b141      	cbz	r1, 1000057a <irq_set_enabled+0x1e>
10000568:	0080      	lsls	r0, r0, #2
1000056a:	f100 4060 	add.w	r0, r0, #3758096384	@ 0xe0000000
1000056e:	f500 4061 	add.w	r0, r0, #57600	@ 0xe100
10000572:	f8c0 3180 	str.w	r3, [r0, #384]	@ 0x180
10000576:	6003      	str	r3, [r0, #0]
10000578:	4770      	bx	lr
1000057a:	4a02      	ldr	r2, [pc, #8]	@ (10000584 <irq_set_enabled+0x28>)
1000057c:	3020      	adds	r0, #32
1000057e:	f842 3020 	str.w	r3, [r2, r0, lsl #2]
10000582:	4770      	bx	lr
10000584:	e000e100 	.word	0xe000e100

10000588 <irq_is_enabled>:
10000588:	2301      	movs	r3, #1
1000058a:	4a06      	ldr	r2, [pc, #24]	@ (100005a4 <irq_is_enabled+0x1c>)
1000058c:	0941      	lsrs	r1, r0, #5
1000058e:	f852 2021 	ldr.w	r2, [r2, r1, lsl #2]
10000592:	f000 001f 	and.w	r0, r0, #31
10000596:	fa03 f000 	lsl.w	r0, r3, r0
1000059a:	4010      	ands	r0, r2
1000059c:	3800      	subs	r0, #0
1000059e:	bf18      	it	ne
100005a0:	2001      	movne	r0, #1
100005a2:	4770      	bx	lr
100005a4:	e000e100 	.word	0xe000e100

100005a8 <irq_set_exclusive_handler>:
100005a8:	b5f8      	push	{r3, r4, r5, r6, r7, lr}
100005aa:	460d      	mov	r5, r1
100005ac:	f3ef 8710 	mrs	r7, PRIMASK
100005b0:	b672      	cpsid	i
100005b2:	4e12      	ldr	r6, [pc, #72]	@ (100005fc <irq_set_exclusive_handler+0x54>)
100005b4:	e8d6 2fcf 	ldaexb	r2, [r6]
100005b8:	2301      	movs	r3, #1
100005ba:	2a00      	cmp	r2, #0
100005bc:	d1fa      	bne.n	100005b4 <irq_set_exclusive_handler+0xc>
100005be:	e8c6 3f42 	strexb	r2, r3, [r6]
100005c2:	2a00      	cmp	r2, #0
100005c4:	d1f6      	bne.n	100005b4 <irq_set_exclusive_handler+0xc>
100005c6:	f3bf 8f5f 	dmb	sy
100005ca:	4b0d      	ldr	r3, [pc, #52]	@ (10000600 <irq_set_exclusive_handler+0x58>)
100005cc:	f100 0410 	add.w	r4, r0, #16
100005d0:	689b      	ldr	r3, [r3, #8]
100005d2:	4a0c      	ldr	r2, [pc, #48]	@ (10000604 <irq_set_exclusive_handler+0x5c>)
100005d4:	f853 3024 	ldr.w	r3, [r3, r4, lsl #2]
100005d8:	4293      	cmp	r3, r2
100005da:	d003      	beq.n	100005e4 <irq_set_exclusive_handler+0x3c>
100005dc:	4299      	cmp	r1, r3
100005de:	d001      	beq.n	100005e4 <irq_set_exclusive_handler+0x3c>
100005e0:	f000 ff1e 	bl	10001420 <hard_assertion_failure>
100005e4:	4b06      	ldr	r3, [pc, #24]	@ (10000600 <irq_set_exclusive_handler+0x58>)
100005e6:	689b      	ldr	r3, [r3, #8]
100005e8:	f843 5024 	str.w	r5, [r3, r4, lsl #2]
100005ec:	f3bf 8f5f 	dmb	sy
100005f0:	2300      	movs	r3, #0
100005f2:	e8c6 3f8f 	stlb	r3, [r6]
100005f6:	f387 8810 	msr	PRIMASK, r7
100005fa:	bdf8      	pop	{r3, r4, r5, r6, r7, pc}
100005fc:	20000859 	.word	0x20000859
10000600:	e000ed00 	.word	0xe000ed00
10000604:	1000011d 	.word	0x1000011d

10000608 <irq_remove_handler>:
10000608:	e92d 4ff0 	stmdb	sp!, {r4, r5, r6, r7, r8, r9, sl, fp, lr}
1000060c:	b083      	sub	sp, #12
1000060e:	f3ef 8a10 	mrs	sl, PRIMASK
10000612:	b672      	cpsid	i
10000614:	4e71      	ldr	r6, [pc, #452]	@ (100007dc <irq_remove_handler+0x1d4>)
10000616:	e8d6 2fcf 	ldaexb	r2, [r6]
1000061a:	2301      	movs	r3, #1
1000061c:	2a00      	cmp	r2, #0
1000061e:	d1fa      	bne.n	10000616 <irq_remove_handler+0xe>
10000620:	e8c6 3f42 	strexb	r2, r3, [r6]
10000624:	2a00      	cmp	r2, #0
10000626:	d1f6      	bne.n	10000616 <irq_remove_handler+0xe>
10000628:	f3bf 8f5f 	dmb	sy
1000062c:	4b6c      	ldr	r3, [pc, #432]	@ (100007e0 <irq_remove_handler+0x1d8>)
1000062e:	f100 0810 	add.w	r8, r0, #16
10000632:	689b      	ldr	r3, [r3, #8]
10000634:	4a6b      	ldr	r2, [pc, #428]	@ (100007e4 <irq_remove_handler+0x1dc>)
10000636:	f853 5028 	ldr.w	r5, [r3, r8, lsl #2]
1000063a:	4295      	cmp	r5, r2
1000063c:	d045      	beq.n	100006ca <irq_remove_handler+0xc2>
1000063e:	428d      	cmp	r5, r1
10000640:	460c      	mov	r4, r1
10000642:	d050      	beq.n	100006e6 <irq_remove_handler+0xde>
10000644:	4f68      	ldr	r7, [pc, #416]	@ (100007e8 <irq_remove_handler+0x1e0>)
10000646:	1beb      	subs	r3, r5, r7
10000648:	2b2f      	cmp	r3, #47	@ 0x2f
1000064a:	d83e      	bhi.n	100006ca <irq_remove_handler+0xc2>
1000064c:	2101      	movs	r1, #1
1000064e:	ea4f 1950 	mov.w	r9, r0, lsr #5
10000652:	ea4f 0989 	mov.w	r9, r9, lsl #2
10000656:	f109 4960 	add.w	r9, r9, #3758096384	@ 0xe0000000
1000065a:	f509 4961 	add.w	r9, r9, #57600	@ 0xe100
1000065e:	f000 031f 	and.w	r3, r0, #31
10000662:	fa01 f003 	lsl.w	r0, r1, r3
10000666:	f8d9 3000 	ldr.w	r3, [r9]
1000066a:	f8c9 0080 	str.w	r0, [r9, #128]	@ 0x80
1000066e:	ea00 0b03 	and.w	fp, r0, r3
10000672:	f3bf 8f5f 	dmb	sy
10000676:	f3ef 8105 	mrs	r1, IPSR
1000067a:	b2c9      	uxtb	r1, r1
1000067c:	2900      	cmp	r1, #0
1000067e:	d034      	beq.n	100006ea <irq_remove_handler+0xe2>
10000680:	4588      	cmp	r8, r1
10000682:	d005      	beq.n	10000690 <irq_remove_handler+0x88>
10000684:	e9cd 1000 	strd	r1, r0, [sp]
10000688:	f000 feca 	bl	10001420 <hard_assertion_failure>
1000068c:	e9dd 1000 	ldrd	r1, r0, [sp]
10000690:	f025 0e01 	bic.w	lr, r5, #1
10000694:	f8de c008 	ldr.w	ip, [lr, #8]
10000698:	4564      	cmp	r4, ip
1000069a:	d105      	bne.n	100006a8 <irq_remove_handler+0xa0>
1000069c:	e089      	b.n	100007b2 <irq_remove_handler+0x1aa>
1000069e:	f8d3 c008 	ldr.w	ip, [r3, #8]
100006a2:	4564      	cmp	r4, ip
100006a4:	d031      	beq.n	1000070a <irq_remove_handler+0x102>
100006a6:	469e      	mov	lr, r3
100006a8:	f99e 2006 	ldrsb.w	r2, [lr, #6]
100006ac:	eb02 0342 	add.w	r3, r2, r2, lsl #1
100006b0:	2a00      	cmp	r2, #0
100006b2:	eb07 0383 	add.w	r3, r7, r3, lsl #2
100006b6:	daf2      	bge.n	1000069e <irq_remove_handler+0x96>
100006b8:	4564      	cmp	r4, ip
100006ba:	d061      	beq.n	10000780 <irq_remove_handler+0x178>
100006bc:	f1bb 0f00 	cmp.w	fp, #0
100006c0:	d020      	beq.n	10000704 <irq_remove_handler+0xfc>
100006c2:	f8c9 0180 	str.w	r0, [r9, #384]	@ 0x180
100006c6:	f8c9 0000 	str.w	r0, [r9]
100006ca:	4b45      	ldr	r3, [pc, #276]	@ (100007e0 <irq_remove_handler+0x1d8>)
100006cc:	689b      	ldr	r3, [r3, #8]
100006ce:	f843 5028 	str.w	r5, [r3, r8, lsl #2]
100006d2:	f3bf 8f5f 	dmb	sy
100006d6:	2300      	movs	r3, #0
100006d8:	e8c6 3f8f 	stlb	r3, [r6]
100006dc:	f38a 8810 	msr	PRIMASK, sl
100006e0:	b003      	add	sp, #12
100006e2:	e8bd 8ff0 	ldmia.w	sp!, {r4, r5, r6, r7, r8, r9, sl, fp, pc}
100006e6:	4615      	mov	r5, r2
100006e8:	e7ef      	b.n	100006ca <irq_remove_handler+0xc2>
100006ea:	f025 0e01 	bic.w	lr, r5, #1
100006ee:	f8de c008 	ldr.w	ip, [lr, #8]
100006f2:	4564      	cmp	r4, ip
100006f4:	d1d8      	bne.n	100006a8 <irq_remove_handler+0xa0>
100006f6:	f99e 4006 	ldrsb.w	r4, [lr, #6]
100006fa:	4673      	mov	r3, lr
100006fc:	2c00      	cmp	r4, #0
100006fe:	da08      	bge.n	10000712 <irq_remove_handler+0x10a>
10000700:	4615      	mov	r5, r2
10000702:	e046      	b.n	10000792 <irq_remove_handler+0x18a>
10000704:	f8c9 0080 	str.w	r0, [r9, #128]	@ 0x80
10000708:	e7df      	b.n	100006ca <irq_remove_handler+0xc2>
1000070a:	f993 4006 	ldrsb.w	r4, [r3, #6]
1000070e:	2c00      	cmp	r4, #0
10000710:	db37      	blt.n	10000782 <irq_remove_handler+0x17a>
10000712:	eb04 0c44 	add.w	ip, r4, r4, lsl #1
10000716:	eb07 0c8c 	add.w	ip, r7, ip, lsl #2
1000071a:	f89c 1007 	ldrb.w	r1, [ip, #7]
1000071e:	f8dc 2008 	ldr.w	r2, [ip, #8]
10000722:	71d9      	strb	r1, [r3, #7]
10000724:	609a      	str	r2, [r3, #8]
10000726:	f99c 2006 	ldrsb.w	r2, [ip, #6]
1000072a:	0061      	lsls	r1, r4, #1
1000072c:	2a00      	cmp	r2, #0
1000072e:	719a      	strb	r2, [r3, #6]
10000730:	db3d      	blt.n	100007ae <irq_remove_handler+0x1a6>
10000732:	f8bc e004 	ldrh.w	lr, [ip, #4]
10000736:	ea5f 5e4e 	movs.w	lr, lr, lsl #21
1000073a:	d505      	bpl.n	10000748 <irq_remove_handler+0x140>
1000073c:	f50e 1eff 	add.w	lr, lr, #2088960	@ 0x1fe000
10000740:	f50e 5eff 	add.w	lr, lr, #8160	@ 0x1fe0
10000744:	f10e 0e1f 	add.w	lr, lr, #31
10000748:	f06f 0c07 	mvn.w	ip, #7
1000074c:	190a      	adds	r2, r1, r4
1000074e:	ea4f 5e6e 	mov.w	lr, lr, asr #21
10000752:	0092      	lsls	r2, r2, #2
10000754:	eb02 024e 	add.w	r2, r2, lr, lsl #1
10000758:	3208      	adds	r2, #8
1000075a:	443a      	add	r2, r7
1000075c:	ebac 0c03 	sub.w	ip, ip, r3
10000760:	4462      	add	r2, ip
10000762:	f3c2 024a 	ubfx	r2, r2, #1, #11
10000766:	ea6f 42c2 	mvn.w	r2, r2, lsl #19
1000076a:	ea6f 42d2 	mvn.w	r2, r2, lsr #19
1000076e:	809a      	strh	r2, [r3, #4]
10000770:	4b1e      	ldr	r3, [pc, #120]	@ (100007ec <irq_remove_handler+0x1e4>)
10000772:	4421      	add	r1, r4
10000774:	781a      	ldrb	r2, [r3, #0]
10000776:	eb07 0181 	add.w	r1, r7, r1, lsl #2
1000077a:	701c      	strb	r4, [r3, #0]
1000077c:	718a      	strb	r2, [r1, #6]
1000077e:	e79d      	b.n	100006bc <irq_remove_handler+0xb4>
10000780:	4673      	mov	r3, lr
10000782:	b9d9      	cbnz	r1, 100007bc <irq_remove_handler+0x1b4>
10000784:	22ff      	movs	r2, #255	@ 0xff
10000786:	f88e 2006 	strb.w	r2, [lr, #6]
1000078a:	f64b 5201 	movw	r2, #48385	@ 0xbd01
1000078e:	f8ae 2004 	strh.w	r2, [lr, #4]
10000792:	4c16      	ldr	r4, [pc, #88]	@ (100007ec <irq_remove_handler+0x1e4>)
10000794:	f64a 22aa 	movw	r2, #43690	@ 0xaaaa
10000798:	f894 c000 	ldrb.w	ip, [r4]
1000079c:	4619      	mov	r1, r3
1000079e:	1bc9      	subs	r1, r1, r7
100007a0:	4149      	adcs	r1, r1
100007a2:	434a      	muls	r2, r1
100007a4:	0d12      	lsrs	r2, r2, #20
100007a6:	f883 c006 	strb.w	ip, [r3, #6]
100007aa:	7022      	strb	r2, [r4, #0]
100007ac:	e786      	b.n	100006bc <irq_remove_handler+0xb4>
100007ae:	4a10      	ldr	r2, [pc, #64]	@ (100007f0 <irq_remove_handler+0x1e8>)
100007b0:	e7dd      	b.n	1000076e <irq_remove_handler+0x166>
100007b2:	f99e 4006 	ldrsb.w	r4, [lr, #6]
100007b6:	4673      	mov	r3, lr
100007b8:	2c00      	cmp	r4, #0
100007ba:	daaa      	bge.n	10000712 <irq_remove_handler+0x10a>
100007bc:	4a0d      	ldr	r2, [pc, #52]	@ (100007f4 <irq_remove_handler+0x1ec>)
100007be:	4c0e      	ldr	r4, [pc, #56]	@ (100007f8 <irq_remove_handler+0x1f0>)
100007c0:	1ad2      	subs	r2, r2, r3
100007c2:	3a08      	subs	r2, #8
100007c4:	f3c2 310a 	ubfx	r1, r2, #12, #11
100007c8:	ea6f 5101 	mvn.w	r1, r1, lsl #20
100007cc:	ea6f 5111 	mvn.w	r1, r1, lsr #20
100007d0:	ea44 0252 	orr.w	r2, r4, r2, lsr #1
100007d4:	80da      	strh	r2, [r3, #6]
100007d6:	8099      	strh	r1, [r3, #4]
100007d8:	e770      	b.n	100006bc <irq_remove_handler+0xb4>
100007da:	bf00      	nop
100007dc:	20000859 	.word	0x20000859
100007e0:	e000ed00 	.word	0xe000ed00
100007e4:	1000011d 	.word	0x1000011d
100007e8:	200005fc 	.word	0x200005fc
100007ec:	20020c98 	.word	0x20020c98
100007f0:	ffffbd01 	.word	0xffffbd01
100007f4:	20000636 	.word	0x20000636
100007f8:	fffff800 	.word	0xfffff800

100007fc <irq_set_priority>:
100007fc:	f04f 0cff 	mov.w	ip, #255	@ 0xff
10000800:	f020 0303 	bic.w	r3, r0, #3
10000804:	f103 4360 	add.w	r3, r3, #3758096384	@ 0xe0000000
10000808:	f503 4364 	add.w	r3, r3, #58368	@ 0xe400
1000080c:	f000 0003 	and.w	r0, r0, #3
10000810:	681a      	ldr	r2, [r3, #0]
10000812:	00c0      	lsls	r0, r0, #3
10000814:	fa0c fc00 	lsl.w	ip, ip, r0
10000818:	ea22 020c 	bic.w	r2, r2, ip
1000081c:	4081      	lsls	r1, r0
1000081e:	430a      	orrs	r2, r1
10000820:	601a      	str	r2, [r3, #0]
10000822:	4770      	bx	lr

10000824 <irq_add_tail_to_free_list>:
10000824:	b5f0      	push	{r4, r5, r6, r7, lr}
10000826:	f3ef 8505 	mrs	r5, IPSR
1000082a:	b2ed      	uxtb	r5, r5
1000082c:	f3ef 8c10 	mrs	ip, PRIMASK
10000830:	b672      	cpsid	i
10000832:	4926      	ldr	r1, [pc, #152]	@ (100008cc <irq_add_tail_to_free_list+0xa8>)
10000834:	e8d1 2fcf 	ldaexb	r2, [r1]
10000838:	2301      	movs	r3, #1
1000083a:	2a00      	cmp	r2, #0
1000083c:	d1fa      	bne.n	10000834 <irq_add_tail_to_free_list+0x10>
1000083e:	e8c1 3f42 	strexb	r2, r3, [r1]
10000842:	2a00      	cmp	r2, #0
10000844:	d1f6      	bne.n	10000834 <irq_add_tail_to_free_list+0x10>
10000846:	f3bf 8f5f 	dmb	sy
1000084a:	4e21      	ldr	r6, [pc, #132]	@ (100008d0 <irq_add_tail_to_free_list+0xac>)
1000084c:	f040 0e01 	orr.w	lr, r0, #1
10000850:	68b4      	ldr	r4, [r6, #8]
10000852:	f64a 23aa 	movw	r3, #43690	@ 0xaaaa
10000856:	f854 7025 	ldr.w	r7, [r4, r5, lsl #2]
1000085a:	4a1e      	ldr	r2, [pc, #120]	@ (100008d4 <irq_add_tail_to_free_list+0xb0>)
1000085c:	4604      	mov	r4, r0
1000085e:	1aa4      	subs	r4, r4, r2
10000860:	4164      	adcs	r4, r4
10000862:	4363      	muls	r3, r4
10000864:	0d1b      	lsrs	r3, r3, #20
10000866:	4577      	cmp	r7, lr
10000868:	b25b      	sxtb	r3, r3
1000086a:	d01b      	beq.n	100008a4 <irq_add_tail_to_free_list+0x80>
1000086c:	f992 4006 	ldrsb.w	r4, [r2, #6]
10000870:	429c      	cmp	r4, r3
10000872:	d01c      	beq.n	100008ae <irq_add_tail_to_free_list+0x8a>
10000874:	f992 4012 	ldrsb.w	r4, [r2, #18]
10000878:	429c      	cmp	r4, r3
1000087a:	d023      	beq.n	100008c4 <irq_add_tail_to_free_list+0xa0>
1000087c:	f992 401e 	ldrsb.w	r4, [r2, #30]
10000880:	429c      	cmp	r4, r3
10000882:	d021      	beq.n	100008c8 <irq_add_tail_to_free_list+0xa4>
10000884:	f992 402a 	ldrsb.w	r4, [r2, #42]	@ 0x2a
10000888:	429c      	cmp	r4, r3
1000088a:	bf08      	it	eq
1000088c:	2403      	moveq	r4, #3
1000088e:	d00f      	beq.n	100008b0 <irq_add_tail_to_free_list+0x8c>
10000890:	4a11      	ldr	r2, [pc, #68]	@ (100008d8 <irq_add_tail_to_free_list+0xb4>)
10000892:	2400      	movs	r4, #0
10000894:	7815      	ldrb	r5, [r2, #0]
10000896:	7013      	strb	r3, [r2, #0]
10000898:	7185      	strb	r5, [r0, #6]
1000089a:	e8c1 4f8f 	stlb	r4, [r1]
1000089e:	f38c 8810 	msr	PRIMASK, ip
100008a2:	bdf0      	pop	{r4, r5, r6, r7, pc}
100008a4:	68b2      	ldr	r2, [r6, #8]
100008a6:	4c0d      	ldr	r4, [pc, #52]	@ (100008dc <irq_add_tail_to_free_list+0xb8>)
100008a8:	f842 4025 	str.w	r4, [r2, r5, lsl #2]
100008ac:	e7f0      	b.n	10000890 <irq_add_tail_to_free_list+0x6c>
100008ae:	2400      	movs	r4, #0
100008b0:	eb04 0444 	add.w	r4, r4, r4, lsl #1
100008b4:	eb02 0284 	add.w	r2, r2, r4, lsl #2
100008b8:	24ff      	movs	r4, #255	@ 0xff
100008ba:	7194      	strb	r4, [r2, #6]
100008bc:	f64b 5401 	movw	r4, #48385	@ 0xbd01
100008c0:	8094      	strh	r4, [r2, #4]
100008c2:	e7e5      	b.n	10000890 <irq_add_tail_to_free_list+0x6c>
100008c4:	2401      	movs	r4, #1
100008c6:	e7f3      	b.n	100008b0 <irq_add_tail_to_free_list+0x8c>
100008c8:	2402      	movs	r4, #2
100008ca:	e7f1      	b.n	100008b0 <irq_add_tail_to_free_list+0x8c>
100008cc:	20000859 	.word	0x20000859
100008d0:	e000ed00 	.word	0xe000ed00
100008d4:	200005fc 	.word	0x200005fc
100008d8:	20020c98 	.word	0x20020c98
100008dc:	1000011d 	.word	0x1000011d

100008e0 <lock_init>:
100008e0:	4b01      	ldr	r3, [pc, #4]	@ (100008e8 <lock_init+0x8>)
100008e2:	440b      	add	r3, r1
100008e4:	6003      	str	r3, [r0, #0]
100008e6:	4770      	bx	lr
100008e8:	20000850 	.word	0x20000850

100008ec <runtime_init_mutex>:
100008ec:	b5f8      	push	{r3, r4, r5, r6, r7, lr}
100008ee:	4c12      	ldr	r4, [pc, #72]	@ (10000938 <runtime_init_mutex+0x4c>)
100008f0:	4d12      	ldr	r5, [pc, #72]	@ (1000093c <runtime_init_mutex+0x50>)
100008f2:	42ac      	cmp	r4, r5
100008f4:	d211      	bcs.n	1000091a <runtime_init_mutex+0x2e>
100008f6:	f04f 36ff 	mov.w	r6, #4294967295
100008fa:	2700      	movs	r7, #0
100008fc:	6823      	ldr	r3, [r4, #0]
100008fe:	b16b      	cbz	r3, 1000091c <runtime_init_mutex+0x30>
10000900:	f7ff fde2 	bl	100004c8 <next_striped_spin_lock_num>
10000904:	4601      	mov	r1, r0
10000906:	4620      	mov	r0, r4
10000908:	f7ff ffea 	bl	100008e0 <lock_init>
1000090c:	6066      	str	r6, [r4, #4]
1000090e:	7227      	strb	r7, [r4, #8]
10000910:	f3bf 8f5f 	dmb	sy
10000914:	340c      	adds	r4, #12
10000916:	42ac      	cmp	r4, r5
10000918:	d3f0      	bcc.n	100008fc <runtime_init_mutex+0x10>
1000091a:	bdf8      	pop	{r3, r4, r5, r6, r7, pc}
1000091c:	f7ff fdd4 	bl	100004c8 <next_striped_spin_lock_num>
10000920:	4601      	mov	r1, r0
10000922:	4620      	mov	r0, r4
10000924:	f7ff ffdc 	bl	100008e0 <lock_init>
10000928:	6066      	str	r6, [r4, #4]
1000092a:	f3bf 8f5f 	dmb	sy
1000092e:	3408      	adds	r4, #8
10000930:	42ac      	cmp	r4, r5
10000932:	d3e3      	bcc.n	100008fc <runtime_init_mutex+0x10>
10000934:	bdf8      	pop	{r3, r4, r5, r6, r7, pc}
10000936:	bf00      	nop
10000938:	20000678 	.word	0x20000678
1000093c:	20000688 	.word	0x20000688

10000940 <alarm_pool_irq_handler>:
10000940:	e92d 4ff0 	stmdb	sp!, {r4, r5, r6, r7, r8, r9, sl, fp, lr}
10000944:	ed2d 8b02 	vpush	{d8}
10000948:	b085      	sub	sp, #20
1000094a:	f3ef 8305 	mrs	r3, IPSR
1000094e:	b2db      	uxtb	r3, r3
10000950:	3b10      	subs	r3, #16
10000952:	089a      	lsrs	r2, r3, #2
10000954:	bf18      	it	ne
10000956:	2201      	movne	r2, #1
10000958:	f04f 0101 	mov.w	r1, #1
1000095c:	f003 0b03 	and.w	fp, r3, #3
10000960:	bf18      	it	ne
10000962:	4daf      	ldrne	r5, [pc, #700]	@ (10000c20 <alarm_pool_irq_handler+0x2e0>)
10000964:	4baf      	ldr	r3, [pc, #700]	@ (10000c24 <alarm_pool_irq_handler+0x2e4>)
10000966:	bf08      	it	eq
10000968:	4daf      	ldreq	r5, [pc, #700]	@ (10000c28 <alarm_pool_irq_handler+0x2e8>)
1000096a:	eb0b 0282 	add.w	r2, fp, r2, lsl #2
1000096e:	f853 6022 	ldr.w	r6, [r3, r2, lsl #2]
10000972:	fa01 f20b 	lsl.w	r2, r1, fp
10000976:	f505 5341 	add.w	r3, r5, #12352	@ 0x3040
1000097a:	ed9f 8ba7 	vldr	d8, [pc, #668]	@ 10000c18 <alarm_pool_irq_handler+0x2d8>
1000097e:	9201      	str	r2, [sp, #4]
10000980:	605a      	str	r2, [r3, #4]
10000982:	e02f      	b.n	100009e4 <alarm_pool_irq_handler+0xa4>
10000984:	88b3      	ldrh	r3, [r6, #4]
10000986:	041c      	lsls	r4, r3, #16
10000988:	f140 8093 	bpl.w	10000ab2 <alarm_pool_irq_handler+0x172>
1000098c:	79b3      	ldrb	r3, [r6, #6]
1000098e:	2b00      	cmp	r3, #0
10000990:	f040 80dd 	bne.w	10000b4e <alarm_pool_irq_handler+0x20e>
10000994:	f9b6 2008 	ldrsh.w	r2, [r6, #8]
10000998:	2a00      	cmp	r2, #0
1000099a:	f2c0 811e 	blt.w	10000bda <alarm_pool_irq_handler+0x29a>
1000099e:	6973      	ldr	r3, [r6, #20]
100009a0:	eb02 0242 	add.w	r2, r2, r2, lsl #1
100009a4:	eb03 03c2 	add.w	r3, r3, r2, lsl #3
100009a8:	e9d3 4702 	ldrd	r4, r7, [r3, #8]
100009ac:	f1b7 3fff 	cmp.w	r7, #4294967295
100009b0:	bf08      	it	eq
100009b2:	f1b4 3fff 	cmpeq.w	r4, #4294967295
100009b6:	d00e      	beq.n	100009d6 <alarm_pool_irq_handler+0x96>
100009b8:	eb05 018b 	add.w	r1, r5, fp, lsl #2
100009bc:	6aab      	ldr	r3, [r5, #40]	@ 0x28
100009be:	690a      	ldr	r2, [r1, #16]
100009c0:	1ad2      	subs	r2, r2, r3
100009c2:	1ae3      	subs	r3, r4, r3
100009c4:	4293      	cmp	r3, r2
100009c6:	d305      	bcc.n	100009d4 <alarm_pool_irq_handler+0x94>
100009c8:	2301      	movs	r3, #1
100009ca:	6a2a      	ldr	r2, [r5, #32]
100009cc:	fa03 f30b 	lsl.w	r3, r3, fp
100009d0:	4213      	tst	r3, r2
100009d2:	d100      	bne.n	100009d6 <alarm_pool_irq_handler+0x96>
100009d4:	610c      	str	r4, [r1, #16]
100009d6:	4628      	mov	r0, r5
100009d8:	f000 fb50 	bl	1000107c <timer_time_us_64>
100009dc:	42a0      	cmp	r0, r4
100009de:	41b9      	sbcs	r1, r7
100009e0:	f2c0 80fb 	blt.w	10000bda <alarm_pool_irq_handler+0x29a>
100009e4:	f9b6 3008 	ldrsh.w	r3, [r6, #8]
100009e8:	9a01      	ldr	r2, [sp, #4]
100009ea:	2b00      	cmp	r3, #0
100009ec:	9300      	str	r3, [sp, #0]
100009ee:	63ea      	str	r2, [r5, #60]	@ 0x3c
100009f0:	dbc8      	blt.n	10000984 <alarm_pool_irq_handler+0x44>
100009f2:	f8d6 8014 	ldr.w	r8, [r6, #20]
100009f6:	eb03 0943 	add.w	r9, r3, r3, lsl #1
100009fa:	4628      	mov	r0, r5
100009fc:	eb08 07c9 	add.w	r7, r8, r9, lsl #3
10000a00:	e9d7 4a02 	ldrd	r4, sl, [r7, #8]
10000a04:	f000 fb3a 	bl	1000107c <timer_time_us_64>
10000a08:	42a0      	cmp	r0, r4
10000a0a:	eb71 010a 	sbcs.w	r1, r1, sl
10000a0e:	dbb9      	blt.n	10000984 <alarm_pool_irq_handler+0x44>
10000a10:	f1ba 0f00 	cmp.w	sl, #0
10000a14:	f2c0 80c3 	blt.w	10000b9e <alarm_pool_irq_handler+0x25e>
10000a18:	e9d7 3104 	ldrd	r3, r1, [r7, #16]
10000a1c:	4a83      	ldr	r2, [pc, #524]	@ (10000c2c <alarm_pool_irq_handler+0x2ec>)
10000a1e:	4293      	cmp	r3, r2
10000a20:	f000 80ed 	beq.w	10000bfe <alarm_pool_irq_handler+0x2be>
10000a24:	887a      	ldrh	r2, [r7, #2]
10000a26:	f9b6 0008 	ldrsh.w	r0, [r6, #8]
10000a2a:	b292      	uxth	r2, r2
10000a2c:	ea42 4000 	orr.w	r0, r2, r0, lsl #16
10000a30:	4798      	blx	r3
10000a32:	4602      	mov	r2, r0
10000a34:	460b      	mov	r3, r1
10000a36:	ea52 0103 	orrs.w	r1, r2, r3
10000a3a:	f000 80b0 	beq.w	10000b9e <alarm_pool_irq_handler+0x25e>
10000a3e:	2b00      	cmp	r3, #0
10000a40:	f280 80d1 	bge.w	10000be6 <alarm_pool_irq_handler+0x2a6>
10000a44:	ebb4 0e02 	subs.w	lr, r4, r2
10000a48:	eb6a 0a03 	sbc.w	sl, sl, r3
10000a4c:	f938 3039 	ldrsh.w	r3, [r8, r9, lsl #3]
10000a50:	e9c7 ea02 	strd	lr, sl, [r7, #8]
10000a54:	2b00      	cmp	r3, #0
10000a56:	db95      	blt.n	10000984 <alarm_pool_irq_handler+0x44>
10000a58:	6971      	ldr	r1, [r6, #20]
10000a5a:	eb03 0243 	add.w	r2, r3, r3, lsl #1
10000a5e:	eb01 02c2 	add.w	r2, r1, r2, lsl #3
10000a62:	e9d2 7002 	ldrd	r7, r0, [r2, #8]
10000a66:	45be      	cmp	lr, r7
10000a68:	eb7a 0c00 	sbcs.w	ip, sl, r0
10000a6c:	ea4f 0243 	mov.w	r2, r3, lsl #1
10000a70:	db88      	blt.n	10000984 <alarm_pool_irq_handler+0x44>
10000a72:	46b4      	mov	ip, r6
10000a74:	f82c 3f08 	strh.w	r3, [ip, #8]!
10000a78:	e006      	b.n	10000a88 <alarm_pool_irq_handler+0x148>
10000a7a:	eb03 0043 	add.w	r0, r3, r3, lsl #1
10000a7e:	eb01 00c0 	add.w	r0, r1, r0, lsl #3
10000a82:	005a      	lsls	r2, r3, #1
10000a84:	e9d0 7002 	ldrd	r7, r0, [r0, #8]
10000a88:	45be      	cmp	lr, r7
10000a8a:	441a      	add	r2, r3
10000a8c:	eb7a 0000 	sbcs.w	r0, sl, r0
10000a90:	eb01 04c2 	add.w	r4, r1, r2, lsl #3
10000a94:	db04      	blt.n	10000aa0 <alarm_pool_irq_handler+0x160>
10000a96:	f931 3032 	ldrsh.w	r3, [r1, r2, lsl #3]
10000a9a:	46a4      	mov	ip, r4
10000a9c:	2b00      	cmp	r3, #0
10000a9e:	daec      	bge.n	10000a7a <alarm_pool_irq_handler+0x13a>
10000aa0:	f828 3039 	strh.w	r3, [r8, r9, lsl #3]
10000aa4:	9b00      	ldr	r3, [sp, #0]
10000aa6:	f8ac 3000 	strh.w	r3, [ip]
10000aaa:	88b3      	ldrh	r3, [r6, #4]
10000aac:	041c      	lsls	r4, r3, #16
10000aae:	f53f af6d 	bmi.w	1000098c <alarm_pool_irq_handler+0x4c>
10000ab2:	6933      	ldr	r3, [r6, #16]
10000ab4:	f3ef 8210 	mrs	r2, PRIMASK
10000ab8:	b672      	cpsid	i
10000aba:	e8d3 0fcf 	ldaexb	r0, [r3]
10000abe:	2101      	movs	r1, #1
10000ac0:	2800      	cmp	r0, #0
10000ac2:	d1fa      	bne.n	10000aba <alarm_pool_irq_handler+0x17a>
10000ac4:	e8c3 1f40 	strexb	r0, r1, [r3]
10000ac8:	2800      	cmp	r0, #0
10000aca:	d1f6      	bne.n	10000aba <alarm_pool_irq_handler+0x17a>
10000acc:	f3bf 8f5f 	dmb	sy
10000ad0:	f64f 74ff 	movw	r4, #65535	@ 0xffff
10000ad4:	88b0      	ldrh	r0, [r6, #4]
10000ad6:	2300      	movs	r3, #0
10000ad8:	6931      	ldr	r1, [r6, #16]
10000ada:	b200      	sxth	r0, r0
10000adc:	80b4      	strh	r4, [r6, #4]
10000ade:	e8c1 3f8f 	stlb	r3, [r1]
10000ae2:	f382 8810 	msr	PRIMASK, r2
10000ae6:	4298      	cmp	r0, r3
10000ae8:	f6ff af50 	blt.w	1000098c <alarm_pool_irq_handler+0x4c>
10000aec:	4607      	mov	r7, r0
10000aee:	46a9      	mov	r9, r5
10000af0:	6974      	ldr	r4, [r6, #20]
10000af2:	f106 0808 	add.w	r8, r6, #8
10000af6:	eb07 0e47 	add.w	lr, r7, r7, lsl #1
10000afa:	eb04 03ce 	add.w	r3, r4, lr, lsl #3
10000afe:	e9d3 5002 	ldrd	r5, r0, [r3, #8]
10000b02:	f9b6 3008 	ldrsh.w	r3, [r6, #8]
10000b06:	46c4      	mov	ip, r8
10000b08:	2b00      	cmp	r3, #0
10000b0a:	db13      	blt.n	10000b34 <alarm_pool_irq_handler+0x1f4>
10000b0c:	46b2      	mov	sl, r6
10000b0e:	9700      	str	r7, [sp, #0]
10000b10:	e004      	b.n	10000b1c <alarm_pool_irq_handler+0x1dc>
10000b12:	f934 3036 	ldrsh.w	r3, [r4, r6, lsl #3]
10000b16:	4694      	mov	ip, r2
10000b18:	2b00      	cmp	r3, #0
10000b1a:	db09      	blt.n	10000b30 <alarm_pool_irq_handler+0x1f0>
10000b1c:	eb03 0643 	add.w	r6, r3, r3, lsl #1
10000b20:	eb04 02c6 	add.w	r2, r4, r6, lsl #3
10000b24:	e9d2 7102 	ldrd	r7, r1, [r2, #8]
10000b28:	42bd      	cmp	r5, r7
10000b2a:	eb70 0101 	sbcs.w	r1, r0, r1
10000b2e:	daf0      	bge.n	10000b12 <alarm_pool_irq_handler+0x1d2>
10000b30:	4656      	mov	r6, sl
10000b32:	9f00      	ldr	r7, [sp, #0]
10000b34:	f8ac 7000 	strh.w	r7, [ip]
10000b38:	f934 703e 	ldrsh.w	r7, [r4, lr, lsl #3]
10000b3c:	f824 303e 	strh.w	r3, [r4, lr, lsl #3]
10000b40:	2f00      	cmp	r7, #0
10000b42:	dad8      	bge.n	10000af6 <alarm_pool_irq_handler+0x1b6>
10000b44:	79b3      	ldrb	r3, [r6, #6]
10000b46:	464d      	mov	r5, r9
10000b48:	2b00      	cmp	r3, #0
10000b4a:	f43f af23 	beq.w	10000994 <alarm_pool_irq_handler+0x54>
10000b4e:	2300      	movs	r3, #0
10000b50:	71b3      	strb	r3, [r6, #6]
10000b52:	f9b6 3008 	ldrsh.w	r3, [r6, #8]
10000b56:	f106 0808 	add.w	r8, r6, #8
10000b5a:	1c58      	adds	r0, r3, #1
10000b5c:	d03d      	beq.n	10000bda <alarm_pool_irq_handler+0x29a>
10000b5e:	461a      	mov	r2, r3
10000b60:	6977      	ldr	r7, [r6, #20]
10000b62:	e003      	b.n	10000b6c <alarm_pool_irq_handler+0x22c>
10000b64:	4680      	mov	r8, r0
10000b66:	1c59      	adds	r1, r3, #1
10000b68:	f43f af16 	beq.w	10000998 <alarm_pool_irq_handler+0x58>
10000b6c:	eb03 0143 	add.w	r1, r3, r3, lsl #1
10000b70:	eb07 00c1 	add.w	r0, r7, r1, lsl #3
10000b74:	f8b0 c002 	ldrh.w	ip, [r0, #2]
10000b78:	461c      	mov	r4, r3
10000b7a:	f41c 4f00 	tst.w	ip, #32768	@ 0x8000
10000b7e:	469e      	mov	lr, r3
10000b80:	f937 3031 	ldrsh.w	r3, [r7, r1, lsl #3]
10000b84:	d0ee      	beq.n	10000b64 <alarm_pool_irq_handler+0x224>
10000b86:	4294      	cmp	r4, r2
10000b88:	ed80 8b02 	vstr	d8, [r0, #8]
10000b8c:	d005      	beq.n	10000b9a <alarm_pool_irq_handler+0x25a>
10000b8e:	f8a8 3000 	strh.w	r3, [r8]
10000b92:	8932      	ldrh	r2, [r6, #8]
10000b94:	f827 2031 	strh.w	r2, [r7, r1, lsl #3]
10000b98:	8134      	strh	r4, [r6, #8]
10000b9a:	4672      	mov	r2, lr
10000b9c:	e7e3      	b.n	10000b66 <alarm_pool_irq_handler+0x226>
10000b9e:	f838 3039 	ldrh.w	r3, [r8, r9, lsl #3]
10000ba2:	8133      	strh	r3, [r6, #8]
10000ba4:	6933      	ldr	r3, [r6, #16]
10000ba6:	f3ef 8210 	mrs	r2, PRIMASK
10000baa:	b672      	cpsid	i
10000bac:	e8d3 0fcf 	ldaexb	r0, [r3]
10000bb0:	2101      	movs	r1, #1
10000bb2:	2800      	cmp	r0, #0
10000bb4:	d1fa      	bne.n	10000bac <alarm_pool_irq_handler+0x26c>
10000bb6:	e8c3 1f40 	strexb	r0, r1, [r3]
10000bba:	2800      	cmp	r0, #0
10000bbc:	d1f6      	bne.n	10000bac <alarm_pool_irq_handler+0x26c>
10000bbe:	f3bf 8f5f 	dmb	sy
10000bc2:	8873      	ldrh	r3, [r6, #2]
10000bc4:	6931      	ldr	r1, [r6, #16]
10000bc6:	f828 3039 	strh.w	r3, [r8, r9, lsl #3]
10000bca:	9b00      	ldr	r3, [sp, #0]
10000bcc:	8073      	strh	r3, [r6, #2]
10000bce:	2300      	movs	r3, #0
10000bd0:	e8c1 3f8f 	stlb	r3, [r1]
10000bd4:	f382 8810 	msr	PRIMASK, r2
10000bd8:	e6d4      	b.n	10000984 <alarm_pool_irq_handler+0x44>
10000bda:	bf40      	sev
10000bdc:	b005      	add	sp, #20
10000bde:	ecbd 8b02 	vpop	{d8}
10000be2:	e8bd 8ff0 	ldmia.w	sp!, {r4, r5, r6, r7, r8, r9, sl, fp, pc}
10000be6:	4628      	mov	r0, r5
10000be8:	e9cd 2302 	strd	r2, r3, [sp, #8]
10000bec:	f000 fa46 	bl	1000107c <timer_time_us_64>
10000bf0:	9a02      	ldr	r2, [sp, #8]
10000bf2:	9b03      	ldr	r3, [sp, #12]
10000bf4:	eb10 0e02 	adds.w	lr, r0, r2
10000bf8:	eb43 0a01 	adc.w	sl, r3, r1
10000bfc:	e726      	b.n	10000a4c <alarm_pool_irq_handler+0x10c>
10000bfe:	4608      	mov	r0, r1
10000c00:	690b      	ldr	r3, [r1, #16]
10000c02:	9102      	str	r1, [sp, #8]
10000c04:	4798      	blx	r3
10000c06:	2800      	cmp	r0, #0
10000c08:	d0c9      	beq.n	10000b9e <alarm_pool_irq_handler+0x25e>
10000c0a:	9902      	ldr	r1, [sp, #8]
10000c0c:	e9d1 2300 	ldrd	r2, r3, [r1]
10000c10:	e711      	b.n	10000a36 <alarm_pool_irq_handler+0xf6>
10000c12:	bf00      	nop
10000c14:	f3af 8000 	nop.w
10000c18:	ffffffff 	.word	0xffffffff
10000c1c:	ffffffff 	.word	0xffffffff
10000c20:	400b8000 	.word	0x400b8000
10000c24:	200008d0 	.word	0x200008d0
10000c28:	400b0000 	.word	0x400b0000
10000c2c:	10000941 	.word	0x10000941

10000c30 <sleep_until_callback>:
10000c30:	480b      	ldr	r0, [pc, #44]	@ (10000c60 <sleep_until_callback+0x30>)
10000c32:	b508      	push	{r3, lr}
10000c34:	6803      	ldr	r3, [r0, #0]
10000c36:	f3ef 8110 	mrs	r1, PRIMASK
10000c3a:	b672      	cpsid	i
10000c3c:	e8d3 cfcf 	ldaexb	ip, [r3]
10000c40:	2201      	movs	r2, #1
10000c42:	f1bc 0f00 	cmp.w	ip, #0
10000c46:	d1f9      	bne.n	10000c3c <sleep_until_callback+0xc>
10000c48:	e8c3 2f4c 	strexb	ip, r2, [r3]
10000c4c:	f1bc 0f00 	cmp.w	ip, #0
10000c50:	d1f4      	bne.n	10000c3c <sleep_until_callback+0xc>
10000c52:	f3bf 8f5f 	dmb	sy
10000c56:	f001 f9fb 	bl	10002050 <vPortLockInternalSpinUnlockWithNotify>
10000c5a:	2000      	movs	r0, #0
10000c5c:	2100      	movs	r1, #0
10000c5e:	bd08      	pop	{r3, pc}
10000c60:	20000b8c 	.word	0x20000b8c

10000c64 <runtime_init_default_alarm_pool>:
10000c64:	e92d 4ff8 	stmdb	sp!, {r3, r4, r5, r6, r7, r8, r9, sl, fp, lr}
10000c68:	4c36      	ldr	r4, [pc, #216]	@ (10000d44 <runtime_init_default_alarm_pool+0xe0>)
10000c6a:	6925      	ldr	r5, [r4, #16]
10000c6c:	b12d      	cbz	r5, 10000c7a <runtime_init_default_alarm_pool+0x16>
10000c6e:	e8bd 4ff8 	ldmia.w	sp!, {r3, r4, r5, r6, r7, r8, r9, sl, fp, lr}
10000c72:	210a      	movs	r1, #10
10000c74:	4834      	ldr	r0, [pc, #208]	@ (10000d48 <runtime_init_default_alarm_pool+0xe4>)
10000c76:	f7ff be33 	b.w	100008e0 <lock_init>
10000c7a:	f8df 80e4 	ldr.w	r8, [pc, #228]	@ 10000d60 <runtime_init_default_alarm_pool+0xfc>
10000c7e:	2103      	movs	r1, #3
10000c80:	4640      	mov	r0, r8
10000c82:	f000 f9e9 	bl	10001058 <timer_hardware_alarm_claim>
10000c86:	2603      	movs	r6, #3
10000c88:	f8c4 800c 	str.w	r8, [r4, #12]
10000c8c:	f7ff fc1c 	bl	100004c8 <next_striped_spin_lock_num>
10000c90:	f04f 4c50 	mov.w	ip, #3489660928	@ 0xd0000000
10000c94:	4b2d      	ldr	r3, [pc, #180]	@ (10000d4c <runtime_init_default_alarm_pool+0xe8>)
10000c96:	7026      	strb	r6, [r4, #0]
10000c98:	4403      	add	r3, r0
10000c9a:	6123      	str	r3, [r4, #16]
10000c9c:	f8dc 3000 	ldr.w	r3, [ip]
10000ca0:	210f      	movs	r1, #15
10000ca2:	7063      	strb	r3, [r4, #1]
10000ca4:	6963      	ldr	r3, [r4, #20]
10000ca6:	8061      	strh	r1, [r4, #2]
10000ca8:	831d      	strh	r5, [r3, #24]
10000caa:	f04f 0504 	mov.w	r5, #4
10000cae:	f8a3 5078 	strh.w	r5, [r3, #120]	@ 0x78
10000cb2:	f04f 0505 	mov.w	r5, #5
10000cb6:	f8a3 5090 	strh.w	r5, [r3, #144]	@ 0x90
10000cba:	f04f 0506 	mov.w	r5, #6
10000cbe:	f8a3 50a8 	strh.w	r5, [r3, #168]	@ 0xa8
10000cc2:	f04f 0507 	mov.w	r5, #7
10000cc6:	210e      	movs	r1, #14
10000cc8:	f64f 72ff 	movw	r2, #65535	@ 0xffff
10000ccc:	2708      	movs	r7, #8
10000cce:	f04f 0e0a 	mov.w	lr, #10
10000cd2:	f8a3 50c0 	strh.w	r5, [r3, #192]	@ 0xc0
10000cd6:	f04f 0901 	mov.w	r9, #1
10000cda:	f04f 0c0c 	mov.w	ip, #12
10000cde:	f04f 0b02 	mov.w	fp, #2
10000ce2:	f04f 0a09 	mov.w	sl, #9
10000ce6:	200d      	movs	r0, #13
10000ce8:	f04f 050b 	mov.w	r5, #11
10000cec:	f8a3 1168 	strh.w	r1, [r3, #360]	@ 0x168
10000cf0:	4917      	ldr	r1, [pc, #92]	@ (10000d50 <runtime_init_default_alarm_pool+0xec>)
10000cf2:	80a2      	strh	r2, [r4, #4]
10000cf4:	f8a3 e108 	strh.w	lr, [r3, #264]	@ 0x108
10000cf8:	60a1      	str	r1, [r4, #8]
10000cfa:	f8a3 b048 	strh.w	fp, [r3, #72]	@ 0x48
10000cfe:	f8a3 a0f0 	strh.w	sl, [r3, #240]	@ 0xf0
10000d02:	f8a3 5120 	strh.w	r5, [r3, #288]	@ 0x120
10000d06:	f8a3 c138 	strh.w	ip, [r3, #312]	@ 0x138
10000d0a:	f8a3 0150 	strh.w	r0, [r3, #336]	@ 0x150
10000d0e:	f8a3 9030 	strh.w	r9, [r3, #48]	@ 0x30
10000d12:	f8a3 6060 	strh.w	r6, [r3, #96]	@ 0x60
10000d16:	f8a3 70d8 	strh.w	r7, [r3, #216]	@ 0xd8
10000d1a:	801a      	strh	r2, [r3, #0]
10000d1c:	4b0d      	ldr	r3, [pc, #52]	@ (10000d54 <runtime_init_default_alarm_pool+0xf0>)
10000d1e:	4630      	mov	r0, r6
10000d20:	f8c8 7020 	str.w	r7, [r8, #32]
10000d24:	490c      	ldr	r1, [pc, #48]	@ (10000d58 <runtime_init_default_alarm_pool+0xf4>)
10000d26:	60dc      	str	r4, [r3, #12]
10000d28:	f7ff fc3e 	bl	100005a8 <irq_set_exclusive_handler>
10000d2c:	4649      	mov	r1, r9
10000d2e:	4630      	mov	r0, r6
10000d30:	f7ff fc14 	bl	1000055c <irq_set_enabled>
10000d34:	4b09      	ldr	r3, [pc, #36]	@ (10000d5c <runtime_init_default_alarm_pool+0xf8>)
10000d36:	210a      	movs	r1, #10
10000d38:	641f      	str	r7, [r3, #64]	@ 0x40
10000d3a:	4803      	ldr	r0, [pc, #12]	@ (10000d48 <runtime_init_default_alarm_pool+0xe4>)
10000d3c:	e8bd 4ff8 	ldmia.w	sp!, {r3, r4, r5, r6, r7, r8, r9, sl, fp, lr}
10000d40:	f7ff bdce 	b.w	100008e0 <lock_init>
10000d44:	20000644 	.word	0x20000644
10000d48:	20000b8c 	.word	0x20000b8c
10000d4c:	20000850 	.word	0x20000850
10000d50:	0010ffff 	.word	0x0010ffff
10000d54:	200008d0 	.word	0x200008d0
10000d58:	10000941 	.word	0x10000941
10000d5c:	400b2000 	.word	0x400b2000
10000d60:	400b0000 	.word	0x400b0000

10000d64 <alarm_pool_add_alarm_at_force_in_context>:
10000d64:	4601      	mov	r1, r0
10000d66:	b5f0      	push	{r4, r5, r6, r7, lr}
10000d68:	6900      	ldr	r0, [r0, #16]
10000d6a:	f3ef 8710 	mrs	r7, PRIMASK
10000d6e:	b672      	cpsid	i
10000d70:	e8d0 5fcf 	ldaexb	r5, [r0]
10000d74:	2401      	movs	r4, #1
10000d76:	2d00      	cmp	r5, #0
10000d78:	d1fa      	bne.n	10000d70 <alarm_pool_add_alarm_at_force_in_context+0xc>
10000d7a:	e8c0 4f45 	strexb	r5, r4, [r0]
10000d7e:	2d00      	cmp	r5, #0
10000d80:	d1f6      	bne.n	10000d70 <alarm_pool_add_alarm_at_force_in_context+0xc>
10000d82:	f3bf 8f5f 	dmb	sy
10000d86:	f9b1 e002 	ldrsh.w	lr, [r1, #2]
10000d8a:	694c      	ldr	r4, [r1, #20]
10000d8c:	eb0e 0c4e 	add.w	ip, lr, lr, lsl #1
10000d90:	f1be 0f00 	cmp.w	lr, #0
10000d94:	ea4f 05cc 	mov.w	r5, ip, lsl #3
10000d98:	6908      	ldr	r0, [r1, #16]
10000d9a:	eb04 0ccc 	add.w	ip, r4, ip, lsl #3
10000d9e:	db3c      	blt.n	10000e1a <alarm_pool_add_alarm_at_force_in_context+0xb6>
10000da0:	5b66      	ldrh	r6, [r4, r5]
10000da2:	804e      	strh	r6, [r1, #2]
10000da4:	2600      	movs	r6, #0
10000da6:	e8c0 6f8f 	stlb	r6, [r0]
10000daa:	f387 8810 	msr	PRIMASK, r7
10000dae:	f8bc 0002 	ldrh.w	r0, [ip, #2]
10000db2:	e9cc 2302 	strd	r2, r3, [ip, #8]
10000db6:	3001      	adds	r0, #1
10000db8:	f3c0 000e 	ubfx	r0, r0, #0, #15
10000dbc:	2801      	cmp	r0, #1
10000dbe:	bf38      	it	cc
10000dc0:	2001      	movcc	r0, #1
10000dc2:	9b05      	ldr	r3, [sp, #20]
10000dc4:	f8ac 0002 	strh.w	r0, [ip, #2]
10000dc8:	f8cc 3010 	str.w	r3, [ip, #16]
10000dcc:	9b06      	ldr	r3, [sp, #24]
10000dce:	ea40 400e 	orr.w	r0, r0, lr, lsl #16
10000dd2:	f8cc 3014 	str.w	r3, [ip, #20]
10000dd6:	690b      	ldr	r3, [r1, #16]
10000dd8:	f3ef 8210 	mrs	r2, PRIMASK
10000ddc:	b672      	cpsid	i
10000dde:	e8d3 cfcf 	ldaexb	ip, [r3]
10000de2:	2701      	movs	r7, #1
10000de4:	f1bc 0f00 	cmp.w	ip, #0
10000de8:	d1f9      	bne.n	10000dde <alarm_pool_add_alarm_at_force_in_context+0x7a>
10000dea:	e8c3 7f4c 	strexb	ip, r7, [r3]
10000dee:	f1bc 0f00 	cmp.w	ip, #0
10000df2:	d1f4      	bne.n	10000dde <alarm_pool_add_alarm_at_force_in_context+0x7a>
10000df4:	f3bf 8f5f 	dmb	sy
10000df8:	888b      	ldrh	r3, [r1, #4]
10000dfa:	5363      	strh	r3, [r4, r5]
10000dfc:	f8a1 e004 	strh.w	lr, [r1, #4]
10000e00:	690b      	ldr	r3, [r1, #16]
10000e02:	e8c3 6f8f 	stlb	r6, [r3]
10000e06:	f382 8810 	msr	PRIMASK, r2
10000e0a:	2201      	movs	r2, #1
10000e0c:	68cb      	ldr	r3, [r1, #12]
10000e0e:	7809      	ldrb	r1, [r1, #0]
10000e10:	f503 5301 	add.w	r3, r3, #8256	@ 0x2040
10000e14:	408a      	lsls	r2, r1
10000e16:	605a      	str	r2, [r3, #4]
10000e18:	bdf0      	pop	{r4, r5, r6, r7, pc}
10000e1a:	2300      	movs	r3, #0
10000e1c:	e8c0 3f8f 	stlb	r3, [r0]
10000e20:	f387 8810 	msr	PRIMASK, r7
10000e24:	f04f 30ff 	mov.w	r0, #4294967295
10000e28:	bdf0      	pop	{r4, r5, r6, r7, pc}
10000e2a:	bf00      	nop

10000e2c <alarm_pool_cancel_alarm>:
10000e2c:	4603      	mov	r3, r0
10000e2e:	8940      	ldrh	r0, [r0, #10]
10000e30:	ebb0 4f21 	cmp.w	r0, r1, asr #16
10000e34:	dd37      	ble.n	10000ea6 <alarm_pool_cancel_alarm+0x7a>
10000e36:	6958      	ldr	r0, [r3, #20]
10000e38:	140a      	asrs	r2, r1, #16
10000e3a:	eb02 0242 	add.w	r2, r2, r2, lsl #1
10000e3e:	b510      	push	{r4, lr}
10000e40:	eb00 00c2 	add.w	r0, r0, r2, lsl #3
10000e44:	691c      	ldr	r4, [r3, #16]
10000e46:	f3ef 8c10 	mrs	ip, PRIMASK
10000e4a:	b672      	cpsid	i
10000e4c:	e8d4 efcf 	ldaexb	lr, [r4]
10000e50:	2201      	movs	r2, #1
10000e52:	f1be 0f00 	cmp.w	lr, #0
10000e56:	d1f9      	bne.n	10000e4c <alarm_pool_cancel_alarm+0x20>
10000e58:	e8c4 2f4e 	strexb	lr, r2, [r4]
10000e5c:	f1be 0f00 	cmp.w	lr, #0
10000e60:	d1f4      	bne.n	10000e4c <alarm_pool_cancel_alarm+0x20>
10000e62:	f3bf 8f5f 	dmb	sy
10000e66:	8842      	ldrh	r2, [r0, #2]
10000e68:	b289      	uxth	r1, r1
10000e6a:	b292      	uxth	r2, r2
10000e6c:	428a      	cmp	r2, r1
10000e6e:	d007      	beq.n	10000e80 <alarm_pool_cancel_alarm+0x54>
10000e70:	2200      	movs	r2, #0
10000e72:	691b      	ldr	r3, [r3, #16]
10000e74:	e8c3 2f8f 	stlb	r2, [r3]
10000e78:	f38c 8810 	msr	PRIMASK, ip
10000e7c:	2000      	movs	r0, #0
10000e7e:	bd10      	pop	{r4, pc}
10000e80:	f442 4200 	orr.w	r2, r2, #32768	@ 0x8000
10000e84:	8042      	strh	r2, [r0, #2]
10000e86:	2101      	movs	r1, #1
10000e88:	2200      	movs	r2, #0
10000e8a:	6918      	ldr	r0, [r3, #16]
10000e8c:	7199      	strb	r1, [r3, #6]
10000e8e:	e8c0 2f8f 	stlb	r2, [r0]
10000e92:	f38c 8810 	msr	PRIMASK, ip
10000e96:	781c      	ldrb	r4, [r3, #0]
10000e98:	68da      	ldr	r2, [r3, #12]
10000e9a:	4608      	mov	r0, r1
10000e9c:	f502 5301 	add.w	r3, r2, #8256	@ 0x2040
10000ea0:	40a1      	lsls	r1, r4
10000ea2:	6059      	str	r1, [r3, #4]
10000ea4:	bd10      	pop	{r4, pc}
10000ea6:	2000      	movs	r0, #0
10000ea8:	4770      	bx	lr
10000eaa:	bf00      	nop

10000eac <sleep_ms>:
10000eac:	e92d 43f0 	stmdb	sp!, {r4, r5, r6, r7, r8, r9, lr}
10000eb0:	b083      	sub	sp, #12
10000eb2:	4606      	mov	r6, r0
10000eb4:	f000 f8ea 	bl	1000108c <time_us_64>
10000eb8:	f44f 737a 	mov.w	r3, #1000	@ 0x3e8
10000ebc:	4604      	mov	r4, r0
10000ebe:	f04f 30ff 	mov.w	r0, #4294967295
10000ec2:	f06f 4200 	mvn.w	r2, #2147483648	@ 0x80000000
10000ec6:	fbe6 4103 	umlal	r4, r1, r6, r3
10000eca:	42a0      	cmp	r0, r4
10000ecc:	eb72 0301 	sbcs.w	r3, r2, r1
10000ed0:	bf3a      	itte	cc
10000ed2:	4604      	movcc	r4, r0
10000ed4:	4615      	movcc	r5, r2
10000ed6:	460d      	movcs	r5, r1
10000ed8:	f1b4 0696 	subs.w	r6, r4, #150	@ 0x96
10000edc:	f145 37ff 	adc.w	r7, r5, #4294967295
10000ee0:	42b4      	cmp	r4, r6
10000ee2:	eb75 0307 	sbcs.w	r3, r5, r7
10000ee6:	bf3c      	itt	cc
10000ee8:	2600      	movcc	r6, #0
10000eea:	4637      	movcc	r7, r6
10000eec:	f000 f8ce 	bl	1000108c <time_us_64>
10000ef0:	1a30      	subs	r0, r6, r0
10000ef2:	eb67 0101 	sbc.w	r1, r7, r1
10000ef6:	2801      	cmp	r0, #1
10000ef8:	f171 0100 	sbcs.w	r1, r1, #0
10000efc:	da06      	bge.n	10000f0c <sleep_ms+0x60>
10000efe:	4620      	mov	r0, r4
10000f00:	4629      	mov	r1, r5
10000f02:	b003      	add	sp, #12
10000f04:	e8bd 43f0 	ldmia.w	sp!, {r4, r5, r6, r7, r8, r9, lr}
10000f08:	f000 b8f8 	b.w	100010fc <busy_wait_until>
10000f0c:	f000 f8be 	bl	1000108c <time_us_64>
10000f10:	4286      	cmp	r6, r0
10000f12:	eb67 0101 	sbc.w	r1, r7, r1
10000f16:	2900      	cmp	r1, #0
10000f18:	db0a      	blt.n	10000f30 <sleep_ms+0x84>
10000f1a:	2100      	movs	r1, #0
10000f1c:	4b15      	ldr	r3, [pc, #84]	@ (10000f74 <sleep_ms+0xc8>)
10000f1e:	4632      	mov	r2, r6
10000f20:	9300      	str	r3, [sp, #0]
10000f22:	4815      	ldr	r0, [pc, #84]	@ (10000f78 <sleep_ms+0xcc>)
10000f24:	463b      	mov	r3, r7
10000f26:	9101      	str	r1, [sp, #4]
10000f28:	f7ff ff1c 	bl	10000d64 <alarm_pool_add_alarm_at_force_in_context>
10000f2c:	3001      	adds	r0, #1
10000f2e:	d0e6      	beq.n	10000efe <sleep_ms+0x52>
10000f30:	f8df 804c 	ldr.w	r8, [pc, #76]	@ 10000f80 <sleep_ms+0xd4>
10000f34:	f8df 9044 	ldr.w	r9, [pc, #68]	@ 10000f7c <sleep_ms+0xd0>
10000f38:	f8d8 3024 	ldr.w	r3, [r8, #36]	@ 0x24
10000f3c:	429f      	cmp	r7, r3
10000f3e:	d805      	bhi.n	10000f4c <sleep_ms+0xa0>
10000f40:	f8d8 2028 	ldr.w	r2, [r8, #40]	@ 0x28
10000f44:	42b2      	cmp	r2, r6
10000f46:	d2da      	bcs.n	10000efe <sleep_ms+0x52>
10000f48:	429f      	cmp	r7, r3
10000f4a:	d1d8      	bne.n	10000efe <sleep_ms+0x52>
10000f4c:	f8d9 3000 	ldr.w	r3, [r9]
10000f50:	f3ef 8110 	mrs	r1, PRIMASK
10000f54:	b672      	cpsid	i
10000f56:	e8d3 0fcf 	ldaexb	r0, [r3]
10000f5a:	2201      	movs	r2, #1
10000f5c:	2800      	cmp	r0, #0
10000f5e:	d1fa      	bne.n	10000f56 <sleep_ms+0xaa>
10000f60:	e8c3 2f40 	strexb	r0, r2, [r3]
10000f64:	2800      	cmp	r0, #0
10000f66:	d1f6      	bne.n	10000f56 <sleep_ms+0xaa>
10000f68:	f3bf 8f5f 	dmb	sy
10000f6c:	4803      	ldr	r0, [pc, #12]	@ (10000f7c <sleep_ms+0xd0>)
10000f6e:	f001 f83d 	bl	10001fec <vPortLockInternalSpinUnlockWithWait>
10000f72:	e7e1      	b.n	10000f38 <sleep_ms+0x8c>
10000f74:	10000c31 	.word	0x10000c31
10000f78:	20000644 	.word	0x20000644
10000f7c:	20000b8c 	.word	0x20000b8c
10000f80:	400b0000 	.word	0x400b0000

10000f84 <best_effort_wfe_or_timeout>:
10000f84:	e92d 43f0 	stmdb	sp!, {r4, r5, r6, r7, r8, r9, lr}
10000f88:	4606      	mov	r6, r0
10000f8a:	460d      	mov	r5, r1
10000f8c:	b083      	sub	sp, #12
10000f8e:	f3ef 8405 	mrs	r4, IPSR
10000f92:	b2e4      	uxtb	r4, r4
10000f94:	b13c      	cbz	r4, 10000fa6 <best_effort_wfe_or_timeout+0x22>
10000f96:	4b2d      	ldr	r3, [pc, #180]	@ (1000104c <best_effort_wfe_or_timeout+0xc8>)
10000f98:	6a5a      	ldr	r2, [r3, #36]	@ 0x24
10000f9a:	42aa      	cmp	r2, r5
10000f9c:	d21c      	bcs.n	10000fd8 <best_effort_wfe_or_timeout+0x54>
10000f9e:	2000      	movs	r0, #0
10000fa0:	b003      	add	sp, #12
10000fa2:	e8bd 83f0 	ldmia.w	sp!, {r4, r5, r6, r7, r8, r9, pc}
10000fa6:	4f2a      	ldr	r7, [pc, #168]	@ (10001050 <best_effort_wfe_or_timeout+0xcc>)
10000fa8:	f8d7 900c 	ldr.w	r9, [r7, #12]
10000fac:	f897 8000 	ldrb.w	r8, [r7]
10000fb0:	4648      	mov	r0, r9
10000fb2:	f000 f863 	bl	1000107c <timer_time_us_64>
10000fb6:	f108 0804 	add.w	r8, r8, #4
10000fba:	f859 3028 	ldr.w	r3, [r9, r8, lsl #2]
10000fbe:	1a1b      	subs	r3, r3, r0
10000fc0:	1a30      	subs	r0, r6, r0
10000fc2:	eb65 0101 	sbc.w	r1, r5, r1
10000fc6:	4298      	cmp	r0, r3
10000fc8:	f171 0100 	sbcs.w	r1, r1, #0
10000fcc:	db10      	blt.n	10000ff0 <best_effort_wfe_or_timeout+0x6c>
10000fce:	bf20      	wfe
10000fd0:	4b1e      	ldr	r3, [pc, #120]	@ (1000104c <best_effort_wfe_or_timeout+0xc8>)
10000fd2:	6a5a      	ldr	r2, [r3, #36]	@ 0x24
10000fd4:	42aa      	cmp	r2, r5
10000fd6:	d3e2      	bcc.n	10000f9e <best_effort_wfe_or_timeout+0x1a>
10000fd8:	bf14      	ite	ne
10000fda:	2401      	movne	r4, #1
10000fdc:	2400      	moveq	r4, #0
10000fde:	6a9b      	ldr	r3, [r3, #40]	@ 0x28
10000fe0:	42b3      	cmp	r3, r6
10000fe2:	bf34      	ite	cc
10000fe4:	4620      	movcc	r0, r4
10000fe6:	f044 0001 	orrcs.w	r0, r4, #1
10000fea:	b003      	add	sp, #12
10000fec:	e8bd 83f0 	ldmia.w	sp!, {r4, r5, r6, r7, r8, r9, pc}
10000ff0:	f000 f84c 	bl	1000108c <time_us_64>
10000ff4:	4286      	cmp	r6, r0
10000ff6:	eb65 0101 	sbc.w	r1, r5, r1
10000ffa:	2900      	cmp	r1, #0
10000ffc:	db14      	blt.n	10001028 <best_effort_wfe_or_timeout+0xa4>
10000ffe:	4b15      	ldr	r3, [pc, #84]	@ (10001054 <best_effort_wfe_or_timeout+0xd0>)
10001000:	4638      	mov	r0, r7
10001002:	e9cd 3400 	strd	r3, r4, [sp]
10001006:	4632      	mov	r2, r6
10001008:	462b      	mov	r3, r5
1000100a:	f7ff feab 	bl	10000d64 <alarm_pool_add_alarm_at_force_in_context>
1000100e:	1e01      	subs	r1, r0, #0
10001010:	dd0a      	ble.n	10001028 <best_effort_wfe_or_timeout+0xa4>
10001012:	4b0e      	ldr	r3, [pc, #56]	@ (1000104c <best_effort_wfe_or_timeout+0xc8>)
10001014:	6a5a      	ldr	r2, [r3, #36]	@ 0x24
10001016:	42aa      	cmp	r2, r5
10001018:	d316      	bcc.n	10001048 <best_effort_wfe_or_timeout+0xc4>
1000101a:	6a9b      	ldr	r3, [r3, #40]	@ 0x28
1000101c:	42b3      	cmp	r3, r6
1000101e:	d311      	bcc.n	10001044 <best_effort_wfe_or_timeout+0xc0>
10001020:	480b      	ldr	r0, [pc, #44]	@ (10001050 <best_effort_wfe_or_timeout+0xcc>)
10001022:	f7ff ff03 	bl	10000e2c <alarm_pool_cancel_alarm>
10001026:	e7b6      	b.n	10000f96 <best_effort_wfe_or_timeout+0x12>
10001028:	4b08      	ldr	r3, [pc, #32]	@ (1000104c <best_effort_wfe_or_timeout+0xc8>)
1000102a:	6a5c      	ldr	r4, [r3, #36]	@ 0x24
1000102c:	42ac      	cmp	r4, r5
1000102e:	d3b6      	bcc.n	10000f9e <best_effort_wfe_or_timeout+0x1a>
10001030:	1b64      	subs	r4, r4, r5
10001032:	bf18      	it	ne
10001034:	2401      	movne	r4, #1
10001036:	6a9b      	ldr	r3, [r3, #40]	@ 0x28
10001038:	42b3      	cmp	r3, r6
1000103a:	bf34      	ite	cc
1000103c:	4620      	movcc	r0, r4
1000103e:	f044 0001 	orrcs.w	r0, r4, #1
10001042:	e7ad      	b.n	10000fa0 <best_effort_wfe_or_timeout+0x1c>
10001044:	42aa      	cmp	r2, r5
10001046:	d1eb      	bne.n	10001020 <best_effort_wfe_or_timeout+0x9c>
10001048:	bf20      	wfe
1000104a:	e7e9      	b.n	10001020 <best_effort_wfe_or_timeout+0x9c>
1000104c:	400b0000 	.word	0x400b0000
10001050:	20000644 	.word	0x20000644
10001054:	10000c31 	.word	0x10000c31

10001058 <timer_hardware_alarm_claim>:
10001058:	b410      	push	{r4}
1000105a:	4b05      	ldr	r3, [pc, #20]	@ (10001070 <timer_hardware_alarm_claim+0x18>)
1000105c:	4c05      	ldr	r4, [pc, #20]	@ (10001074 <timer_hardware_alarm_claim+0x1c>)
1000105e:	4a06      	ldr	r2, [pc, #24]	@ (10001078 <timer_hardware_alarm_claim+0x20>)
10001060:	42a0      	cmp	r0, r4
10001062:	bf14      	ite	ne
10001064:	4618      	movne	r0, r3
10001066:	1c58      	addeq	r0, r3, #1
10001068:	f85d 4b04 	ldr.w	r4, [sp], #4
1000106c:	f7ff ba00 	b.w	10000470 <hw_claim_or_assert>
10001070:	2000087c 	.word	0x2000087c
10001074:	400b8000 	.word	0x400b8000
10001078:	10004ea4 	.word	0x10004ea4

1000107c <timer_time_us_64>:
1000107c:	4603      	mov	r3, r0
1000107e:	6a41      	ldr	r1, [r0, #36]	@ 0x24
10001080:	460a      	mov	r2, r1
10001082:	6a98      	ldr	r0, [r3, #40]	@ 0x28
10001084:	6a59      	ldr	r1, [r3, #36]	@ 0x24
10001086:	428a      	cmp	r2, r1
10001088:	d1fa      	bne.n	10001080 <timer_time_us_64+0x4>
1000108a:	4770      	bx	lr

1000108c <time_us_64>:
1000108c:	4b03      	ldr	r3, [pc, #12]	@ (1000109c <time_us_64+0x10>)
1000108e:	6a59      	ldr	r1, [r3, #36]	@ 0x24
10001090:	460a      	mov	r2, r1
10001092:	6a98      	ldr	r0, [r3, #40]	@ 0x28
10001094:	6a59      	ldr	r1, [r3, #36]	@ 0x24
10001096:	4291      	cmp	r1, r2
10001098:	d1fa      	bne.n	10001090 <time_us_64+0x4>
1000109a:	4770      	bx	lr
1000109c:	400b0000 	.word	0x400b0000

100010a0 <busy_wait_us>:
100010a0:	b430      	push	{r4, r5}
100010a2:	4a15      	ldr	r2, [pc, #84]	@ (100010f8 <busy_wait_us+0x58>)
100010a4:	6a53      	ldr	r3, [r2, #36]	@ 0x24
100010a6:	469c      	mov	ip, r3
100010a8:	6a94      	ldr	r4, [r2, #40]	@ 0x28
100010aa:	6a53      	ldr	r3, [r2, #36]	@ 0x24
100010ac:	4563      	cmp	r3, ip
100010ae:	d1fa      	bne.n	100010a6 <busy_wait_us+0x6>
100010b0:	1902      	adds	r2, r0, r4
100010b2:	4159      	adcs	r1, r3
100010b4:	f04f 0500 	mov.w	r5, #0
100010b8:	bf28      	it	cs
100010ba:	2501      	movcs	r5, #1
100010bc:	4b0e      	ldr	r3, [pc, #56]	@ (100010f8 <busy_wait_us+0x58>)
100010be:	6a5b      	ldr	r3, [r3, #36]	@ 0x24
100010c0:	b1b5      	cbz	r5, 100010f0 <busy_wait_us+0x50>
100010c2:	1c5a      	adds	r2, r3, #1
100010c4:	bf08      	it	eq
100010c6:	461a      	moveq	r2, r3
100010c8:	d008      	beq.n	100010dc <busy_wait_us+0x3c>
100010ca:	f04f 31ff 	mov.w	r1, #4294967295
100010ce:	460a      	mov	r2, r1
100010d0:	4809      	ldr	r0, [pc, #36]	@ (100010f8 <busy_wait_us+0x58>)
100010d2:	6a43      	ldr	r3, [r0, #36]	@ 0x24
100010d4:	428b      	cmp	r3, r1
100010d6:	d3fc      	bcc.n	100010d2 <busy_wait_us+0x32>
100010d8:	428b      	cmp	r3, r1
100010da:	d107      	bne.n	100010ec <busy_wait_us+0x4c>
100010dc:	4906      	ldr	r1, [pc, #24]	@ (100010f8 <busy_wait_us+0x58>)
100010de:	e002      	b.n	100010e6 <busy_wait_us+0x46>
100010e0:	6a48      	ldr	r0, [r1, #36]	@ 0x24
100010e2:	4298      	cmp	r0, r3
100010e4:	d102      	bne.n	100010ec <busy_wait_us+0x4c>
100010e6:	6a88      	ldr	r0, [r1, #40]	@ 0x28
100010e8:	4290      	cmp	r0, r2
100010ea:	d3f9      	bcc.n	100010e0 <busy_wait_us+0x40>
100010ec:	bc30      	pop	{r4, r5}
100010ee:	4770      	bx	lr
100010f0:	4299      	cmp	r1, r3
100010f2:	d8ed      	bhi.n	100010d0 <busy_wait_us+0x30>
100010f4:	e7f0      	b.n	100010d8 <busy_wait_us+0x38>
100010f6:	bf00      	nop
100010f8:	400b0000 	.word	0x400b0000

100010fc <busy_wait_until>:
100010fc:	4a07      	ldr	r2, [pc, #28]	@ (1000111c <busy_wait_until+0x20>)
100010fe:	6a53      	ldr	r3, [r2, #36]	@ 0x24
10001100:	4299      	cmp	r1, r3
10001102:	d8fc      	bhi.n	100010fe <busy_wait_until+0x2>
10001104:	4299      	cmp	r1, r3
10001106:	d107      	bne.n	10001118 <busy_wait_until+0x1c>
10001108:	4b04      	ldr	r3, [pc, #16]	@ (1000111c <busy_wait_until+0x20>)
1000110a:	e002      	b.n	10001112 <busy_wait_until+0x16>
1000110c:	6a5a      	ldr	r2, [r3, #36]	@ 0x24
1000110e:	4291      	cmp	r1, r2
10001110:	d102      	bne.n	10001118 <busy_wait_until+0x1c>
10001112:	6a9a      	ldr	r2, [r3, #40]	@ 0x28
10001114:	4290      	cmp	r0, r2
10001116:	d8f9      	bhi.n	1000110c <busy_wait_until+0x10>
10001118:	4770      	bx	lr
1000111a:	bf00      	nop
1000111c:	400b0000 	.word	0x400b0000

10001120 <uart_init>:
10001120:	b5f8      	push	{r3, r4, r5, r6, r7, lr}
10001122:	4605      	mov	r5, r0
10001124:	2006      	movs	r0, #6
10001126:	460e      	mov	r6, r1
10001128:	f000 f8e4 	bl	100012f4 <clock_get_hz>
1000112c:	2800      	cmp	r0, #0
1000112e:	d042      	beq.n	100011b6 <uart_init+0x96>
10001130:	4a35      	ldr	r2, [pc, #212]	@ (10001208 <uart_init+0xe8>)
10001132:	4836      	ldr	r0, [pc, #216]	@ (1000120c <uart_init+0xec>)
10001134:	4295      	cmp	r5, r2
10001136:	bf14      	ite	ne
10001138:	f04f 6280 	movne.w	r2, #67108864	@ 0x4000000
1000113c:	f04f 6200 	moveq.w	r2, #134217728	@ 0x8000000
10001140:	4b33      	ldr	r3, [pc, #204]	@ (10001210 <uart_init+0xf0>)
10001142:	4934      	ldr	r1, [pc, #208]	@ (10001214 <uart_init+0xf4>)
10001144:	6002      	str	r2, [r0, #0]
10001146:	601a      	str	r2, [r3, #0]
10001148:	688c      	ldr	r4, [r1, #8]
1000114a:	ea32 0404 	bics.w	r4, r2, r4
1000114e:	d1fb      	bne.n	10001148 <uart_init+0x28>
10001150:	4b2d      	ldr	r3, [pc, #180]	@ (10001208 <uart_init+0xe8>)
10001152:	f44f 7180 	mov.w	r1, #256	@ 0x100
10001156:	1aeb      	subs	r3, r5, r3
10001158:	fab3 f383 	clz	r3, r3
1000115c:	4a2e      	ldr	r2, [pc, #184]	@ (10001218 <uart_init+0xf8>)
1000115e:	095b      	lsrs	r3, r3, #5
10001160:	2006      	movs	r0, #6
10001162:	f822 1013 	strh.w	r1, [r2, r3, lsl #1]
10001166:	f000 f8c5 	bl	100012f4 <clock_get_hz>
1000116a:	00c3      	lsls	r3, r0, #3
1000116c:	fbb3 f3f6 	udiv	r3, r3, r6
10001170:	3301      	adds	r3, #1
10001172:	09da      	lsrs	r2, r3, #7
10001174:	d120      	bne.n	100011b8 <uart_init+0x98>
10001176:	2640      	movs	r6, #64	@ 0x40
10001178:	2101      	movs	r1, #1
1000117a:	6269      	str	r1, [r5, #36]	@ 0x24
1000117c:	62aa      	str	r2, [r5, #40]	@ 0x28
1000117e:	6b2f      	ldr	r7, [r5, #48]	@ 0x30
10001180:	07fb      	lsls	r3, r7, #31
10001182:	d422      	bmi.n	100011ca <uart_init+0xaa>
10001184:	462b      	mov	r3, r5
10001186:	2200      	movs	r2, #0
10001188:	f853 1f2c 	ldr.w	r1, [r3, #44]!
1000118c:	2006      	movs	r0, #6
1000118e:	f503 5480 	add.w	r4, r3, #4096	@ 0x1000
10001192:	6022      	str	r2, [r4, #0]
10001194:	632f      	str	r7, [r5, #48]	@ 0x30
10001196:	f000 f8ad 	bl	100012f4 <clock_get_hz>
1000119a:	f240 3101 	movw	r1, #769	@ 0x301
1000119e:	2203      	movs	r2, #3
100011a0:	0080      	lsls	r0, r0, #2
100011a2:	fbb0 f0f6 	udiv	r0, r0, r6
100011a6:	6aeb      	ldr	r3, [r5, #44]	@ 0x2c
100011a8:	f083 0370 	eor.w	r3, r3, #112	@ 0x70
100011ac:	f003 037e 	and.w	r3, r3, #126	@ 0x7e
100011b0:	6023      	str	r3, [r4, #0]
100011b2:	6329      	str	r1, [r5, #48]	@ 0x30
100011b4:	64aa      	str	r2, [r5, #72]	@ 0x48
100011b6:	bdf8      	pop	{r3, r4, r5, r6, r7, pc}
100011b8:	f64f 71fe 	movw	r1, #65534	@ 0xfffe
100011bc:	428a      	cmp	r2, r1
100011be:	d91b      	bls.n	100011f8 <uart_init+0xd8>
100011c0:	4622      	mov	r2, r4
100011c2:	f64f 71ff 	movw	r1, #65535	@ 0xffff
100011c6:	4e15      	ldr	r6, [pc, #84]	@ (1000121c <uart_init+0xfc>)
100011c8:	e7d7      	b.n	1000117a <uart_init+0x5a>
100011ca:	f240 3201 	movw	r2, #769	@ 0x301
100011ce:	f505 5340 	add.w	r3, r5, #12288	@ 0x3000
100011d2:	631a      	str	r2, [r3, #48]	@ 0x30
100011d4:	6a6b      	ldr	r3, [r5, #36]	@ 0x24
100011d6:	6aac      	ldr	r4, [r5, #40]	@ 0x28
100011d8:	2006      	movs	r0, #6
100011da:	eb04 1483 	add.w	r4, r4, r3, lsl #6
100011de:	f000 f889 	bl	100012f4 <clock_get_hz>
100011e2:	4b0f      	ldr	r3, [pc, #60]	@ (10001220 <uart_init+0x100>)
100011e4:	02a4      	lsls	r4, r4, #10
100011e6:	fba3 2300 	umull	r2, r3, r3, r0
100011ea:	0adb      	lsrs	r3, r3, #11
100011ec:	2100      	movs	r1, #0
100011ee:	fbb4 f0f3 	udiv	r0, r4, r3
100011f2:	f7ff ff55 	bl	100010a0 <busy_wait_us>
100011f6:	e7c5      	b.n	10001184 <uart_init+0x64>
100011f8:	f3c3 0345 	ubfx	r3, r3, #1, #6
100011fc:	4611      	mov	r1, r2
100011fe:	eb03 1682 	add.w	r6, r3, r2, lsl #6
10001202:	461a      	mov	r2, r3
10001204:	e7b9      	b.n	1000117a <uart_init+0x5a>
10001206:	bf00      	nop
10001208:	40078000 	.word	0x40078000
1000120c:	40022000 	.word	0x40022000
10001210:	40023000 	.word	0x40023000
10001214:	40020000 	.word	0x40020000
10001218:	20000b90 	.word	0x20000b90
1000121c:	003fffc0 	.word	0x003fffc0
10001220:	8f2b7b75 	.word	0x8f2b7b75

10001224 <clock_configure_undivided>:
10001224:	eb00 0c40 	add.w	ip, r0, r0, lsl #1
10001228:	ea4f 0c8c 	mov.w	ip, ip, lsl #2
1000122c:	f10c 4c80 	add.w	ip, ip, #1073741824	@ 0x40000000
10001230:	f50c 3c80 	add.w	ip, ip, #65536	@ 0x10000
10001234:	b5f0      	push	{r4, r5, r6, r7, lr}
10001236:	4616      	mov	r6, r2
10001238:	f8dc 2004 	ldr.w	r2, [ip, #4]
1000123c:	1f05      	subs	r5, r0, #4
1000123e:	f5b2 3f80 	cmp.w	r2, #65536	@ 0x10000
10001242:	bf38      	it	cc
10001244:	f44f 3280 	movcc.w	r2, #65536	@ 0x10000
10001248:	b2ed      	uxtb	r5, r5
1000124a:	bf38      	it	cc
1000124c:	f8cc 2004 	strcc.w	r2, [ip, #4]
10001250:	2d01      	cmp	r5, #1
10001252:	d92a      	bls.n	100012aa <clock_configure_undivided+0x86>
10001254:	f44f 6700 	mov.w	r7, #2048	@ 0x800
10001258:	4c25      	ldr	r4, [pc, #148]	@ (100012f0 <clock_configure_undivided+0xcc>)
1000125a:	f50c 5240 	add.w	r2, ip, #12288	@ 0x3000
1000125e:	6017      	str	r7, [r2, #0]
10001260:	f854 2020 	ldr.w	r2, [r4, r0, lsl #2]
10001264:	b9b2      	cbnz	r2, 10001294 <clock_configure_undivided+0x70>
10001266:	f8dc 2000 	ldr.w	r2, [ip]
1000126a:	2d01      	cmp	r5, #1
1000126c:	ea82 1246 	eor.w	r2, r2, r6, lsl #5
10001270:	f002 02e0 	and.w	r2, r2, #224	@ 0xe0
10001274:	f50c 5680 	add.w	r6, ip, #4096	@ 0x1000
10001278:	6032      	str	r2, [r6, #0]
1000127a:	d92a      	bls.n	100012d2 <clock_configure_undivided+0xae>
1000127c:	f44f 6100 	mov.w	r1, #2048	@ 0x800
10001280:	f844 3020 	str.w	r3, [r4, r0, lsl #2]
10001284:	f44f 3380 	mov.w	r3, #65536	@ 0x10000
10001288:	f50c 5200 	add.w	r2, ip, #8192	@ 0x2000
1000128c:	6011      	str	r1, [r2, #0]
1000128e:	f8cc 3004 	str.w	r3, [ip, #4]
10001292:	bdf0      	pop	{r4, r5, r6, r7, pc}
10001294:	6967      	ldr	r7, [r4, #20]
10001296:	fbb7 fef2 	udiv	lr, r7, r2
1000129a:	f10e 0e01 	add.w	lr, lr, #1
1000129e:	eb0e 0e4e 	add.w	lr, lr, lr, lsl #1
100012a2:	f1be 0e03 	subs.w	lr, lr, #3
100012a6:	d2fc      	bcs.n	100012a2 <clock_configure_undivided+0x7e>
100012a8:	e7dd      	b.n	10001266 <clock_configure_undivided+0x42>
100012aa:	2901      	cmp	r1, #1
100012ac:	d1d2      	bne.n	10001254 <clock_configure_undivided+0x30>
100012ae:	2403      	movs	r4, #3
100012b0:	f50c 5240 	add.w	r2, ip, #12288	@ 0x3000
100012b4:	6014      	str	r4, [r2, #0]
100012b6:	f8dc 2008 	ldr.w	r2, [ip, #8]
100012ba:	07d2      	lsls	r2, r2, #31
100012bc:	d5fb      	bpl.n	100012b6 <clock_configure_undivided+0x92>
100012be:	f8dc 2000 	ldr.w	r2, [ip]
100012c2:	4c0b      	ldr	r4, [pc, #44]	@ (100012f0 <clock_configure_undivided+0xcc>)
100012c4:	ea82 1246 	eor.w	r2, r2, r6, lsl #5
100012c8:	f002 02e0 	and.w	r2, r2, #224	@ 0xe0
100012cc:	f50c 5680 	add.w	r6, ip, #4096	@ 0x1000
100012d0:	6032      	str	r2, [r6, #0]
100012d2:	2201      	movs	r2, #1
100012d4:	f8dc 5000 	ldr.w	r5, [ip]
100012d8:	404d      	eors	r5, r1
100012da:	f005 0503 	and.w	r5, r5, #3
100012de:	6035      	str	r5, [r6, #0]
100012e0:	fa02 f101 	lsl.w	r1, r2, r1
100012e4:	f8dc 2008 	ldr.w	r2, [ip, #8]
100012e8:	420a      	tst	r2, r1
100012ea:	d0fb      	beq.n	100012e4 <clock_configure_undivided+0xc0>
100012ec:	e7c6      	b.n	1000127c <clock_configure_undivided+0x58>
100012ee:	bf00      	nop
100012f0:	20000880 	.word	0x20000880

100012f4 <clock_get_hz>:
100012f4:	4b01      	ldr	r3, [pc, #4]	@ (100012fc <clock_get_hz+0x8>)
100012f6:	f853 0020 	ldr.w	r0, [r3, r0, lsl #2]
100012fa:	4770      	bx	lr
100012fc:	20000880 	.word	0x20000880

10001300 <pll_init>:
10001300:	b470      	push	{r4, r5, r6}
10001302:	9d03      	ldr	r5, [sp, #12]
10001304:	6804      	ldr	r4, [r0, #0]
10001306:	032d      	lsls	r5, r5, #12
10001308:	ea45 4503 	orr.w	r5, r5, r3, lsl #16
1000130c:	4b1b      	ldr	r3, [pc, #108]	@ (1000137c <pll_init+0x7c>)
1000130e:	2c00      	cmp	r4, #0
10001310:	fbb3 f3f1 	udiv	r3, r3, r1
10001314:	fbb2 f6f3 	udiv	r6, r2, r3
10001318:	db1f      	blt.n	1000135a <pll_init+0x5a>
1000131a:	4a19      	ldr	r2, [pc, #100]	@ (10001380 <pll_init+0x80>)
1000131c:	4b19      	ldr	r3, [pc, #100]	@ (10001384 <pll_init+0x84>)
1000131e:	4290      	cmp	r0, r2
10001320:	bf14      	ite	ne
10001322:	f44f 4280 	movne.w	r2, #16384	@ 0x4000
10001326:	f44f 4200 	moveq.w	r2, #32768	@ 0x8000
1000132a:	4c17      	ldr	r4, [pc, #92]	@ (10001388 <pll_init+0x88>)
1000132c:	601a      	str	r2, [r3, #0]
1000132e:	f503 5380 	add.w	r3, r3, #4096	@ 0x1000
10001332:	601a      	str	r2, [r3, #0]
10001334:	68a3      	ldr	r3, [r4, #8]
10001336:	ea32 0303 	bics.w	r3, r2, r3
1000133a:	d1fb      	bne.n	10001334 <pll_init+0x34>
1000133c:	2221      	movs	r2, #33	@ 0x21
1000133e:	f500 5340 	add.w	r3, r0, #12288	@ 0x3000
10001342:	3304      	adds	r3, #4
10001344:	6001      	str	r1, [r0, #0]
10001346:	6086      	str	r6, [r0, #8]
10001348:	601a      	str	r2, [r3, #0]
1000134a:	6802      	ldr	r2, [r0, #0]
1000134c:	2a00      	cmp	r2, #0
1000134e:	dafc      	bge.n	1000134a <pll_init+0x4a>
10001350:	2208      	movs	r2, #8
10001352:	60c5      	str	r5, [r0, #12]
10001354:	601a      	str	r2, [r3, #0]
10001356:	bc70      	pop	{r4, r5, r6}
10001358:	4770      	bx	lr
1000135a:	6803      	ldr	r3, [r0, #0]
1000135c:	f003 033f 	and.w	r3, r3, #63	@ 0x3f
10001360:	428b      	cmp	r3, r1
10001362:	d1da      	bne.n	1000131a <pll_init+0x1a>
10001364:	6883      	ldr	r3, [r0, #8]
10001366:	f3c3 030b 	ubfx	r3, r3, #0, #12
1000136a:	42b3      	cmp	r3, r6
1000136c:	d1d5      	bne.n	1000131a <pll_init+0x1a>
1000136e:	68c3      	ldr	r3, [r0, #12]
10001370:	f403 23ee 	and.w	r3, r3, #487424	@ 0x77000
10001374:	42ab      	cmp	r3, r5
10001376:	d1d0      	bne.n	1000131a <pll_init+0x1a>
10001378:	e7ed      	b.n	10001356 <pll_init+0x56>
1000137a:	bf00      	nop
1000137c:	00b71b00 	.word	0x00b71b00
10001380:	40058000 	.word	0x40058000
10001384:	40022000 	.word	0x40022000
10001388:	40020000 	.word	0x40020000

1000138c <tick_start>:
1000138c:	2301      	movs	r3, #1
1000138e:	eb00 0040 	add.w	r0, r0, r0, lsl #1
10001392:	0080      	lsls	r0, r0, #2
10001394:	f100 4080 	add.w	r0, r0, #1073741824	@ 0x40000000
10001398:	f500 1084 	add.w	r0, r0, #1081344	@ 0x108000
1000139c:	6041      	str	r1, [r0, #4]
1000139e:	6003      	str	r3, [r0, #0]
100013a0:	4770      	bx	lr
100013a2:	bf00      	nop

100013a4 <rom_func_lookup>:
100013a4:	2300      	movs	r3, #0
100013a6:	8adb      	ldrh	r3, [r3, #22]
100013a8:	2200      	movs	r2, #0
100013aa:	e842 f200 	tt	r2, r2
100013ae:	0252      	lsls	r2, r2, #9
100013b0:	d401      	bmi.n	100013b6 <rom_func_lookup+0x12>
100013b2:	2110      	movs	r1, #16
100013b4:	4718      	bx	r3
100013b6:	2104      	movs	r1, #4
100013b8:	4718      	bx	r3
100013ba:	bf00      	nop

100013bc <runtime_init_bootrom_locking_enable>:
100013bc:	4a03      	ldr	r2, [pc, #12]	@ (100013cc <runtime_init_bootrom_locking_enable+0x10>)
100013be:	f8d2 3828 	ldr.w	r3, [r2, #2088]	@ 0x828
100013c2:	2b00      	cmp	r3, #0
100013c4:	d0fb      	beq.n	100013be <runtime_init_bootrom_locking_enable+0x2>
100013c6:	f3bf 8f5f 	dmb	sy
100013ca:	4770      	bx	lr
100013cc:	400e0000 	.word	0x400e0000

100013d0 <runtime_init_boot_locks_reset>:
100013d0:	2100      	movs	r1, #0
100013d2:	4b04      	ldr	r3, [pc, #16]	@ (100013e4 <runtime_init_boot_locks_reset+0x14>)
100013d4:	4a04      	ldr	r2, [pc, #16]	@ (100013e8 <runtime_init_boot_locks_reset+0x18>)
100013d6:	f3bf 8f5f 	dmb	sy
100013da:	f843 1b04 	str.w	r1, [r3], #4
100013de:	4293      	cmp	r3, r2
100013e0:	d1f9      	bne.n	100013d6 <runtime_init_boot_locks_reset+0x6>
100013e2:	4770      	bx	lr
100013e4:	400e080c 	.word	0x400e080c
100013e8:	400e082c 	.word	0x400e082c

100013ec <xosc_init>:
100013ec:	b410      	push	{r4}
100013ee:	f44f 708d 	mov.w	r0, #282	@ 0x11a
100013f2:	f44f 642a 	mov.w	r4, #2720	@ 0xaa0
100013f6:	4a06      	ldr	r2, [pc, #24]	@ (10001410 <xosc_init+0x24>)
100013f8:	4b06      	ldr	r3, [pc, #24]	@ (10001414 <xosc_init+0x28>)
100013fa:	4907      	ldr	r1, [pc, #28]	@ (10001418 <xosc_init+0x2c>)
100013fc:	6014      	str	r4, [r2, #0]
100013fe:	60d0      	str	r0, [r2, #12]
10001400:	6019      	str	r1, [r3, #0]
10001402:	6853      	ldr	r3, [r2, #4]
10001404:	2b00      	cmp	r3, #0
10001406:	dafc      	bge.n	10001402 <xosc_init+0x16>
10001408:	f85d 4b04 	ldr.w	r4, [sp], #4
1000140c:	4770      	bx	lr
1000140e:	bf00      	nop
10001410:	40048000 	.word	0x40048000
10001414:	4004a000 	.word	0x4004a000
10001418:	00fab000 	.word	0x00fab000

1000141c <first_per_core_initializer>:
1000141c:	4770      	bx	lr
1000141e:	bf00      	nop

10001420 <hard_assertion_failure>:
10001420:	b508      	push	{r3, lr}
10001422:	4801      	ldr	r0, [pc, #4]	@ (10001428 <hard_assertion_failure+0x8>)
10001424:	f7fe fff0 	bl	10000408 <panic>
10001428:	10004ec8 	.word	0x10004ec8

1000142c <runtime_run_initializers>:
1000142c:	b538      	push	{r3, r4, r5, lr}
1000142e:	4c05      	ldr	r4, [pc, #20]	@ (10001444 <runtime_run_initializers+0x18>)
10001430:	4d05      	ldr	r5, [pc, #20]	@ (10001448 <runtime_run_initializers+0x1c>)
10001432:	42ac      	cmp	r4, r5
10001434:	d204      	bcs.n	10001440 <runtime_run_initializers+0x14>
10001436:	f854 3b04 	ldr.w	r3, [r4], #4
1000143a:	4798      	blx	r3
1000143c:	42ac      	cmp	r4, r5
1000143e:	d3fa      	bcc.n	10001436 <runtime_run_initializers+0xa>
10001440:	bd38      	pop	{r3, r4, r5, pc}
10001442:	bf00      	nop
10001444:	10004e18 	.word	0x10004e18
10001448:	10004e58 	.word	0x10004e58

1000144c <runtime_run_per_core_initializers>:
1000144c:	b538      	push	{r3, r4, r5, lr}
1000144e:	4c05      	ldr	r4, [pc, #20]	@ (10001464 <runtime_run_per_core_initializers+0x18>)
10001450:	4d05      	ldr	r5, [pc, #20]	@ (10001468 <runtime_run_per_core_initializers+0x1c>)
10001452:	42ac      	cmp	r4, r5
10001454:	d204      	bcs.n	10001460 <runtime_run_per_core_initializers+0x14>
10001456:	f854 3b04 	ldr.w	r3, [r4], #4
1000145a:	4798      	blx	r3
1000145c:	42ac      	cmp	r4, r5
1000145e:	d3fa      	bcc.n	10001456 <runtime_run_per_core_initializers+0xa>
10001460:	bd38      	pop	{r3, r4, r5, pc}
10001462:	bf00      	nop
10001464:	10004e44 	.word	0x10004e44
10001468:	10004e58 	.word	0x10004e58

1000146c <runtime_init_early_resets>:
1000146c:	b410      	push	{r4}
1000146e:	4807      	ldr	r0, [pc, #28]	@ (1000148c <runtime_init_early_resets+0x20>)
10001470:	4c07      	ldr	r4, [pc, #28]	@ (10001490 <runtime_init_early_resets+0x24>)
10001472:	4b08      	ldr	r3, [pc, #32]	@ (10001494 <runtime_init_early_resets+0x28>)
10001474:	4a08      	ldr	r2, [pc, #32]	@ (10001498 <runtime_init_early_resets+0x2c>)
10001476:	4909      	ldr	r1, [pc, #36]	@ (1000149c <runtime_init_early_resets+0x30>)
10001478:	6004      	str	r4, [r0, #0]
1000147a:	601a      	str	r2, [r3, #0]
1000147c:	688b      	ldr	r3, [r1, #8]
1000147e:	ea32 0303 	bics.w	r3, r2, r3
10001482:	d1fb      	bne.n	1000147c <runtime_init_early_resets+0x10>
10001484:	f85d 4b04 	ldr.w	r4, [sp], #4
10001488:	4770      	bx	lr
1000148a:	bf00      	nop
1000148c:	40022000 	.word	0x40022000
10001490:	efef3b7f 	.word	0xefef3b7f
10001494:	40023000 	.word	0x40023000
10001498:	03f3fff6 	.word	0x03f3fff6
1000149c:	40020000 	.word	0x40020000

100014a0 <runtime_init_usb_power_down>:
100014a0:	4b04      	ldr	r3, [pc, #16]	@ (100014b4 <runtime_init_usb_power_down+0x14>)
100014a2:	6cdb      	ldr	r3, [r3, #76]	@ 0x4c
100014a4:	f5b3 4f00 	cmp.w	r3, #32768	@ 0x8000
100014a8:	d103      	bne.n	100014b2 <runtime_init_usb_power_down+0x12>
100014aa:	f44f 2280 	mov.w	r2, #262144	@ 0x40000
100014ae:	4b02      	ldr	r3, [pc, #8]	@ (100014b8 <runtime_init_usb_power_down+0x18>)
100014b0:	64da      	str	r2, [r3, #76]	@ 0x4c
100014b2:	4770      	bx	lr
100014b4:	50110000 	.word	0x50110000
100014b8:	50112000 	.word	0x50112000

100014bc <runtime_init_per_core_enable_coprocessors>:
100014bc:	f04f 22e0 	mov.w	r2, #3758153728	@ 0xe000e000
100014c0:	4b04      	ldr	r3, [pc, #16]	@ (100014d4 <runtime_init_per_core_enable_coprocessors+0x18>)
100014c2:	f8d2 1d88 	ldr.w	r1, [r2, #3464]	@ 0xd88
100014c6:	430b      	orrs	r3, r1
100014c8:	f8c2 3d88 	str.w	r3, [r2, #3464]	@ 0xd88
100014cc:	ee10 0430 			dcp_rcmp r0
100014d0:	4770      	bx	lr
100014d2:	bf00      	nop
100014d4:	00300303 	.word	0x00300303

100014d8 <runtime_init_post_clock_resets>:
100014d8:	f06f 4160 	mvn.w	r1, #3758096384	@ 0xe0000000
100014dc:	4b04      	ldr	r3, [pc, #16]	@ (100014f0 <runtime_init_post_clock_resets+0x18>)
100014de:	4a05      	ldr	r2, [pc, #20]	@ (100014f4 <runtime_init_post_clock_resets+0x1c>)
100014e0:	6019      	str	r1, [r3, #0]
100014e2:	6893      	ldr	r3, [r2, #8]
100014e4:	43db      	mvns	r3, r3
100014e6:	f033 4360 	bics.w	r3, r3, #3758096384	@ 0xe0000000
100014ea:	d1fa      	bne.n	100014e2 <runtime_init_post_clock_resets+0xa>
100014ec:	4770      	bx	lr
100014ee:	bf00      	nop
100014f0:	40023000 	.word	0x40023000
100014f4:	40020000 	.word	0x40020000

100014f8 <runtime_init_bootrom_reset>:
100014f8:	b510      	push	{r4, lr}
100014fa:	f245 2053 	movw	r0, #21075	@ 0x5253
100014fe:	f7ff ff51 	bl	100013a4 <rom_func_lookup>
10001502:	e8bd 4010 	ldmia.w	sp!, {r4, lr}
10001506:	4603      	mov	r3, r0
10001508:	2004      	movs	r0, #4
1000150a:	4718      	bx	r3

1000150c <runtime_init_per_core_bootrom_reset>:
1000150c:	b510      	push	{r4, lr}
1000150e:	f245 2053 	movw	r0, #21075	@ 0x5253
10001512:	f7ff ff47 	bl	100013a4 <rom_func_lookup>
10001516:	e8bd 4010 	ldmia.w	sp!, {r4, lr}
1000151a:	4603      	mov	r3, r0
1000151c:	2001      	movs	r0, #1
1000151e:	4718      	bx	r3

10001520 <runtime_init_spin_locks_reset>:
10001520:	f7fe bff0 	b.w	10000504 <spin_locks_reset>

10001524 <runtime_init_install_ram_vector_table>:
10001524:	b510      	push	{r4, lr}
10001526:	4b05      	ldr	r3, [pc, #20]	@ (1000153c <runtime_init_install_ram_vector_table+0x18>)
10001528:	4c05      	ldr	r4, [pc, #20]	@ (10001540 <runtime_init_install_ram_vector_table+0x1c>)
1000152a:	f44f 7288 	mov.w	r2, #272	@ 0x110
1000152e:	4618      	mov	r0, r3
10001530:	68a1      	ldr	r1, [r4, #8]
10001532:	f003 fbbf 	bl	10004cb4 <memcpy>
10001536:	60a0      	str	r0, [r4, #8]
10001538:	bd10      	pop	{r4, pc}
1000153a:	bf00      	nop
1000153c:	20000000 	.word	0x20000000
10001540:	e000ed00 	.word	0xe000ed00

10001544 <runtime_init_clocks>:
10001544:	2300      	movs	r3, #0
10001546:	b570      	push	{r4, r5, r6, lr}
10001548:	4c2b      	ldr	r4, [pc, #172]	@ (100015f8 <runtime_init_clocks+0xb4>)
1000154a:	b082      	sub	sp, #8
1000154c:	f8c4 3084 	str.w	r3, [r4, #132]	@ 0x84
10001550:	f7ff ff4c 	bl	100013ec <xosc_init>
10001554:	2201      	movs	r2, #1
10001556:	4b29      	ldr	r3, [pc, #164]	@ (100015fc <runtime_init_clocks+0xb8>)
10001558:	63da      	str	r2, [r3, #60]	@ 0x3c
1000155a:	6c63      	ldr	r3, [r4, #68]	@ 0x44
1000155c:	2b01      	cmp	r3, #1
1000155e:	d1fc      	bne.n	1000155a <runtime_init_clocks+0x16>
10001560:	2103      	movs	r1, #3
10001562:	4a26      	ldr	r2, [pc, #152]	@ (100015fc <runtime_init_clocks+0xb8>)
10001564:	4b24      	ldr	r3, [pc, #144]	@ (100015f8 <runtime_init_clocks+0xb4>)
10001566:	6311      	str	r1, [r2, #48]	@ 0x30
10001568:	6b9c      	ldr	r4, [r3, #56]	@ 0x38
1000156a:	2c01      	cmp	r4, #1
1000156c:	d1fc      	bne.n	10001568 <runtime_init_clocks+0x24>
1000156e:	2602      	movs	r6, #2
10001570:	2505      	movs	r5, #5
10001572:	4621      	mov	r1, r4
10001574:	2305      	movs	r3, #5
10001576:	4a22      	ldr	r2, [pc, #136]	@ (10001600 <runtime_init_clocks+0xbc>)
10001578:	4822      	ldr	r0, [pc, #136]	@ (10001604 <runtime_init_clocks+0xc0>)
1000157a:	9600      	str	r6, [sp, #0]
1000157c:	f7ff fec0 	bl	10001300 <pll_init>
10001580:	4621      	mov	r1, r4
10001582:	462b      	mov	r3, r5
10001584:	4a20      	ldr	r2, [pc, #128]	@ (10001608 <runtime_init_clocks+0xc4>)
10001586:	4821      	ldr	r0, [pc, #132]	@ (1000160c <runtime_init_clocks+0xc8>)
10001588:	9500      	str	r5, [sp, #0]
1000158a:	f7ff feb9 	bl	10001300 <pll_init>
1000158e:	2200      	movs	r2, #0
10001590:	2004      	movs	r0, #4
10001592:	4631      	mov	r1, r6
10001594:	4b1e      	ldr	r3, [pc, #120]	@ (10001610 <runtime_init_clocks+0xcc>)
10001596:	f7ff fe45 	bl	10001224 <clock_configure_undivided>
1000159a:	4621      	mov	r1, r4
1000159c:	4628      	mov	r0, r5
1000159e:	2200      	movs	r2, #0
100015a0:	4b1c      	ldr	r3, [pc, #112]	@ (10001614 <runtime_init_clocks+0xd0>)
100015a2:	f7ff fe3f 	bl	10001224 <clock_configure_undivided>
100015a6:	2200      	movs	r2, #0
100015a8:	2008      	movs	r0, #8
100015aa:	4611      	mov	r1, r2
100015ac:	4b1a      	ldr	r3, [pc, #104]	@ (10001618 <runtime_init_clocks+0xd4>)
100015ae:	f7ff fe39 	bl	10001224 <clock_configure_undivided>
100015b2:	2200      	movs	r2, #0
100015b4:	2009      	movs	r0, #9
100015b6:	4611      	mov	r1, r2
100015b8:	4b17      	ldr	r3, [pc, #92]	@ (10001618 <runtime_init_clocks+0xd4>)
100015ba:	f7ff fe33 	bl	10001224 <clock_configure_undivided>
100015be:	2200      	movs	r2, #0
100015c0:	2006      	movs	r0, #6
100015c2:	4611      	mov	r1, r2
100015c4:	4b13      	ldr	r3, [pc, #76]	@ (10001614 <runtime_init_clocks+0xd0>)
100015c6:	f7ff fe2d 	bl	10001224 <clock_configure_undivided>
100015ca:	2200      	movs	r2, #0
100015cc:	4b11      	ldr	r3, [pc, #68]	@ (10001614 <runtime_init_clocks+0xd0>)
100015ce:	2007      	movs	r0, #7
100015d0:	4611      	mov	r1, r2
100015d2:	f7ff fe27 	bl	10001224 <clock_configure_undivided>
100015d6:	2004      	movs	r0, #4
100015d8:	f7ff fe8c 	bl	100012f4 <clock_get_hz>
100015dc:	2400      	movs	r4, #0
100015de:	4b0f      	ldr	r3, [pc, #60]	@ (1000161c <runtime_init_clocks+0xd8>)
100015e0:	fba3 3500 	umull	r3, r5, r3, r0
100015e4:	0cad      	lsrs	r5, r5, #18
100015e6:	b2e0      	uxtb	r0, r4
100015e8:	4629      	mov	r1, r5
100015ea:	3401      	adds	r4, #1
100015ec:	f7ff fece 	bl	1000138c <tick_start>
100015f0:	2c06      	cmp	r4, #6
100015f2:	d1f8      	bne.n	100015e6 <runtime_init_clocks+0xa2>
100015f4:	b002      	add	sp, #8
100015f6:	bd70      	pop	{r4, r5, r6, pc}
100015f8:	40010000 	.word	0x40010000
100015fc:	40013000 	.word	0x40013000
10001600:	59682f00 	.word	0x59682f00
10001604:	40050000 	.word	0x40050000
10001608:	47868c00 	.word	0x47868c00
1000160c:	40058000 	.word	0x40058000
10001610:	00b71b00 	.word	0x00b71b00
10001614:	08f0d180 	.word	0x08f0d180
10001618:	02dc6c00 	.word	0x02dc6c00
1000161c:	431bde83 	.word	0x431bde83

10001620 <_out_char>:
10001620:	b900      	cbnz	r0, 10001624 <_out_char+0x4>
10001622:	4770      	bx	lr
10001624:	f000 b91c 	b.w	10001860 <__wrap_putchar>

10001628 <weak_raw_vprintf>:
10001628:	b510      	push	{r4, lr}
1000162a:	4b09      	ldr	r3, [pc, #36]	@ (10001650 <weak_raw_vprintf+0x28>)
1000162c:	b084      	sub	sp, #16
1000162e:	681c      	ldr	r4, [r3, #0]
10001630:	b14c      	cbz	r4, 10001646 <weak_raw_vprintf+0x1e>
10001632:	4603      	mov	r3, r0
10001634:	9100      	str	r1, [sp, #0]
10001636:	f04f 32ff 	mov.w	r2, #4294967295
1000163a:	a903      	add	r1, sp, #12
1000163c:	4805      	ldr	r0, [pc, #20]	@ (10001654 <weak_raw_vprintf+0x2c>)
1000163e:	47a0      	blx	r4
10001640:	2001      	movs	r0, #1
10001642:	b004      	add	sp, #16
10001644:	bd10      	pop	{r4, pc}
10001646:	f000 f94d 	bl	100018e4 <__wrap_puts>
1000164a:	4620      	mov	r0, r4
1000164c:	b004      	add	sp, #16
1000164e:	bd10      	pop	{r4, pc}
10001650:	200008b4 	.word	0x200008b4
10001654:	10001621 	.word	0x10001621

10001658 <_exit>:
10001658:	be00      	bkpt	0x0000
1000165a:	e7fd      	b.n	10001658 <_exit>

1000165c <exit>:
1000165c:	b508      	push	{r3, lr}
1000165e:	f7ff fffb 	bl	10001658 <_exit>
10001662:	bf00      	nop

10001664 <runtime_init>:
10001664:	b538      	push	{r3, r4, r5, lr}
10001666:	4c06      	ldr	r4, [pc, #24]	@ (10001680 <runtime_init+0x1c>)
10001668:	4d06      	ldr	r5, [pc, #24]	@ (10001684 <runtime_init+0x20>)
1000166a:	f7ff fedf 	bl	1000142c <runtime_run_initializers>
1000166e:	42ac      	cmp	r4, r5
10001670:	d204      	bcs.n	1000167c <runtime_init+0x18>
10001672:	f854 3b04 	ldr.w	r3, [r4], #4
10001676:	4798      	blx	r3
10001678:	42ac      	cmp	r4, r5
1000167a:	d3fa      	bcc.n	10001672 <runtime_init+0xe>
1000167c:	bd38      	pop	{r3, r4, r5, pc}
1000167e:	bf00      	nop
10001680:	10004e58 	.word	0x10004e58
10001684:	10004e60 	.word	0x10004e60

10001688 <stdio_out_chars_no_crlf>:
10001688:	6803      	ldr	r3, [r0, #0]
1000168a:	4608      	mov	r0, r1
1000168c:	4611      	mov	r1, r2
1000168e:	4718      	bx	r3

10001690 <stdio_out_chars_crlf>:
10001690:	e92d 41f0 	stmdb	sp!, {r4, r5, r6, r7, r8, lr}
10001694:	4615      	mov	r5, r2
10001696:	7d42      	ldrb	r2, [r0, #21]
10001698:	4607      	mov	r7, r0
1000169a:	4688      	mov	r8, r1
1000169c:	2a00      	cmp	r2, #0
1000169e:	d046      	beq.n	1000172e <stdio_out_chars_crlf+0x9e>
100016a0:	2d00      	cmp	r5, #0
100016a2:	dd1d      	ble.n	100016e0 <stdio_out_chars_crlf+0x50>
100016a4:	780b      	ldrb	r3, [r1, #0]
100016a6:	2b0a      	cmp	r3, #10
100016a8:	d023      	beq.n	100016f2 <stdio_out_chars_crlf+0x62>
100016aa:	2d01      	cmp	r5, #1
100016ac:	f04f 0c00 	mov.w	ip, #0
100016b0:	d018      	beq.n	100016e4 <stdio_out_chars_crlf+0x54>
100016b2:	4646      	mov	r6, r8
100016b4:	2401      	movs	r4, #1
100016b6:	f816 2f01 	ldrb.w	r2, [r6, #1]!
100016ba:	4621      	mov	r1, r4
100016bc:	2a0a      	cmp	r2, #10
100016be:	f104 0401 	add.w	r4, r4, #1
100016c2:	d022      	beq.n	1000170a <stdio_out_chars_crlf+0x7a>
100016c4:	42a5      	cmp	r5, r4
100016c6:	d1f6      	bne.n	100016b6 <stdio_out_chars_crlf+0x26>
100016c8:	4565      	cmp	r5, ip
100016ca:	dc0b      	bgt.n	100016e4 <stdio_out_chars_crlf+0x54>
100016cc:	eb08 0305 	add.w	r3, r8, r5
100016d0:	f813 3c01 	ldrb.w	r3, [r3, #-1]
100016d4:	f1a3 030d 	sub.w	r3, r3, #13
100016d8:	fab3 f383 	clz	r3, r3
100016dc:	095b      	lsrs	r3, r3, #5
100016de:	753b      	strb	r3, [r7, #20]
100016e0:	e8bd 81f0 	ldmia.w	sp!, {r4, r5, r6, r7, r8, pc}
100016e4:	683b      	ldr	r3, [r7, #0]
100016e6:	eba5 010c 	sub.w	r1, r5, ip
100016ea:	eb08 000c 	add.w	r0, r8, ip
100016ee:	4798      	blx	r3
100016f0:	e7ec      	b.n	100016cc <stdio_out_chars_crlf+0x3c>
100016f2:	7d03      	ldrb	r3, [r0, #20]
100016f4:	2b00      	cmp	r3, #0
100016f6:	d1d8      	bne.n	100016aa <stdio_out_chars_crlf+0x1a>
100016f8:	6803      	ldr	r3, [r0, #0]
100016fa:	2102      	movs	r1, #2
100016fc:	480f      	ldr	r0, [pc, #60]	@ (1000173c <stdio_out_chars_crlf+0xac>)
100016fe:	4798      	blx	r3
10001700:	2d01      	cmp	r5, #1
10001702:	d0e3      	beq.n	100016cc <stdio_out_chars_crlf+0x3c>
10001704:	f04f 0c01 	mov.w	ip, #1
10001708:	e7d3      	b.n	100016b2 <stdio_out_chars_crlf+0x22>
1000170a:	f816 3c01 	ldrb.w	r3, [r6, #-1]
1000170e:	2b0d      	cmp	r3, #13
10001710:	d0d8      	beq.n	100016c4 <stdio_out_chars_crlf+0x34>
10001712:	458c      	cmp	ip, r1
10001714:	eb08 000c 	add.w	r0, r8, ip
10001718:	eba1 010c 	sub.w	r1, r1, ip
1000171c:	da01      	bge.n	10001722 <stdio_out_chars_crlf+0x92>
1000171e:	683b      	ldr	r3, [r7, #0]
10001720:	4798      	blx	r3
10001722:	2102      	movs	r1, #2
10001724:	4805      	ldr	r0, [pc, #20]	@ (1000173c <stdio_out_chars_crlf+0xac>)
10001726:	683b      	ldr	r3, [r7, #0]
10001728:	4798      	blx	r3
1000172a:	46a4      	mov	ip, r4
1000172c:	e7ca      	b.n	100016c4 <stdio_out_chars_crlf+0x34>
1000172e:	4629      	mov	r1, r5
10001730:	4640      	mov	r0, r8
10001732:	683b      	ldr	r3, [r7, #0]
10001734:	e8bd 41f0 	ldmia.w	sp!, {r4, r5, r6, r7, r8, lr}
10001738:	4718      	bx	r3
1000173a:	bf00      	nop
1000173c:	10004fc4 	.word	0x10004fc4

10001740 <stdio_put_string>:
10001740:	e92d 47f0 	stmdb	sp!, {r4, r5, r6, r7, r8, r9, sl, lr}
10001744:	b082      	sub	sp, #8
10001746:	460d      	mov	r5, r1
10001748:	4691      	mov	r9, r2
1000174a:	461c      	mov	r4, r3
1000174c:	4606      	mov	r6, r0
1000174e:	f7ff fc9d 	bl	1000108c <time_us_64>
10001752:	f04f 3cff 	mov.w	ip, #4294967295
10001756:	f06f 4700 	mvn.w	r7, #2147483648	@ 0x80000000
1000175a:	4a2e      	ldr	r2, [pc, #184]	@ (10001814 <stdio_put_string+0xd4>)
1000175c:	1882      	adds	r2, r0, r2
1000175e:	f141 0300 	adc.w	r3, r1, #0
10001762:	4594      	cmp	ip, r2
10001764:	eb77 0103 	sbcs.w	r1, r7, r3
10001768:	bf3c      	itt	cc
1000176a:	4662      	movcc	r2, ip
1000176c:	463b      	movcc	r3, r7
1000176e:	482a      	ldr	r0, [pc, #168]	@ (10001818 <stdio_put_string+0xd8>)
10001770:	f003 fb4e 	bl	10004e10 <__mutex_try_enter_block_until_veneer>
10001774:	1c6b      	adds	r3, r5, #1
10001776:	4680      	mov	r8, r0
10001778:	d040      	beq.n	100017fc <stdio_put_string+0xbc>
1000177a:	b30c      	cbz	r4, 100017c0 <stdio_put_string+0x80>
1000177c:	4f27      	ldr	r7, [pc, #156]	@ (1000181c <stdio_put_string+0xdc>)
1000177e:	4b28      	ldr	r3, [pc, #160]	@ (10001820 <stdio_put_string+0xe0>)
10001780:	681c      	ldr	r4, [r3, #0]
10001782:	b1b4      	cbz	r4, 100017b2 <stdio_put_string+0x72>
10001784:	f1b9 0f00 	cmp.w	r9, #0
10001788:	d11c      	bne.n	100017c4 <stdio_put_string+0x84>
1000178a:	f8df 909c 	ldr.w	r9, [pc, #156]	@ 10001828 <stdio_put_string+0xe8>
1000178e:	e001      	b.n	10001794 <stdio_put_string+0x54>
10001790:	6924      	ldr	r4, [r4, #16]
10001792:	b174      	cbz	r4, 100017b2 <stdio_put_string+0x72>
10001794:	6823      	ldr	r3, [r4, #0]
10001796:	2b00      	cmp	r3, #0
10001798:	d0fa      	beq.n	10001790 <stdio_put_string+0x50>
1000179a:	f8d9 3000 	ldr.w	r3, [r9]
1000179e:	b10b      	cbz	r3, 100017a4 <stdio_put_string+0x64>
100017a0:	429c      	cmp	r4, r3
100017a2:	d1f5      	bne.n	10001790 <stdio_put_string+0x50>
100017a4:	4620      	mov	r0, r4
100017a6:	462a      	mov	r2, r5
100017a8:	4631      	mov	r1, r6
100017aa:	47b8      	blx	r7
100017ac:	6924      	ldr	r4, [r4, #16]
100017ae:	2c00      	cmp	r4, #0
100017b0:	d1f0      	bne.n	10001794 <stdio_put_string+0x54>
100017b2:	f1b8 0f00 	cmp.w	r8, #0
100017b6:	d126      	bne.n	10001806 <stdio_put_string+0xc6>
100017b8:	4628      	mov	r0, r5
100017ba:	b002      	add	sp, #8
100017bc:	e8bd 87f0 	ldmia.w	sp!, {r4, r5, r6, r7, r8, r9, sl, pc}
100017c0:	4f18      	ldr	r7, [pc, #96]	@ (10001824 <stdio_put_string+0xe4>)
100017c2:	e7dc      	b.n	1000177e <stdio_put_string+0x3e>
100017c4:	f04f 0a0a 	mov.w	sl, #10
100017c8:	f8df 905c 	ldr.w	r9, [pc, #92]	@ 10001828 <stdio_put_string+0xe8>
100017cc:	e002      	b.n	100017d4 <stdio_put_string+0x94>
100017ce:	6924      	ldr	r4, [r4, #16]
100017d0:	2c00      	cmp	r4, #0
100017d2:	d0ee      	beq.n	100017b2 <stdio_put_string+0x72>
100017d4:	6823      	ldr	r3, [r4, #0]
100017d6:	2b00      	cmp	r3, #0
100017d8:	d0f9      	beq.n	100017ce <stdio_put_string+0x8e>
100017da:	f8d9 3000 	ldr.w	r3, [r9]
100017de:	b10b      	cbz	r3, 100017e4 <stdio_put_string+0xa4>
100017e0:	42a3      	cmp	r3, r4
100017e2:	d1f4      	bne.n	100017ce <stdio_put_string+0x8e>
100017e4:	462a      	mov	r2, r5
100017e6:	4631      	mov	r1, r6
100017e8:	4620      	mov	r0, r4
100017ea:	47b8      	blx	r7
100017ec:	2201      	movs	r2, #1
100017ee:	4620      	mov	r0, r4
100017f0:	f10d 0107 	add.w	r1, sp, #7
100017f4:	f88d a007 	strb.w	sl, [sp, #7]
100017f8:	47b8      	blx	r7
100017fa:	e7e8      	b.n	100017ce <stdio_put_string+0x8e>
100017fc:	4630      	mov	r0, r6
100017fe:	f003 facf 	bl	10004da0 <strlen>
10001802:	4605      	mov	r5, r0
10001804:	e7b9      	b.n	1000177a <stdio_put_string+0x3a>
10001806:	4804      	ldr	r0, [pc, #16]	@ (10001818 <stdio_put_string+0xd8>)
10001808:	f003 fafa 	bl	10004e00 <__mutex_exit_veneer>
1000180c:	4628      	mov	r0, r5
1000180e:	b002      	add	sp, #8
10001810:	e8bd 87f0 	ldmia.w	sp!, {r4, r5, r6, r7, r8, r9, sl, pc}
10001814:	000f4240 	.word	0x000f4240
10001818:	20000680 	.word	0x20000680
1000181c:	10001691 	.word	0x10001691
10001820:	200008ac 	.word	0x200008ac
10001824:	10001689 	.word	0x10001689
10001828:	200008b0 	.word	0x200008b0

1000182c <stdio_set_driver_enabled>:
1000182c:	4a08      	ldr	r2, [pc, #32]	@ (10001850 <stdio_set_driver_enabled+0x24>)
1000182e:	6813      	ldr	r3, [r2, #0]
10001830:	b923      	cbnz	r3, 1000183c <stdio_set_driver_enabled+0x10>
10001832:	e00a      	b.n	1000184a <stdio_set_driver_enabled+0x1e>
10001834:	f103 0210 	add.w	r2, r3, #16
10001838:	691b      	ldr	r3, [r3, #16]
1000183a:	b133      	cbz	r3, 1000184a <stdio_set_driver_enabled+0x1e>
1000183c:	4283      	cmp	r3, r0
1000183e:	d1f9      	bne.n	10001834 <stdio_set_driver_enabled+0x8>
10001840:	b929      	cbnz	r1, 1000184e <stdio_set_driver_enabled+0x22>
10001842:	6918      	ldr	r0, [r3, #16]
10001844:	6010      	str	r0, [r2, #0]
10001846:	6119      	str	r1, [r3, #16]
10001848:	4770      	bx	lr
1000184a:	b101      	cbz	r1, 1000184e <stdio_set_driver_enabled+0x22>
1000184c:	6010      	str	r0, [r2, #0]
1000184e:	4770      	bx	lr
10001850:	200008ac 	.word	0x200008ac

10001854 <stdio_init_all>:
10001854:	b508      	push	{r3, lr}
10001856:	f000 f933 	bl	10001ac0 <stdio_uart_init>
1000185a:	2001      	movs	r0, #1
1000185c:	bd08      	pop	{r3, pc}
1000185e:	bf00      	nop

10001860 <__wrap_putchar>:
10001860:	b5f0      	push	{r4, r5, r6, r7, lr}
10001862:	b083      	sub	sp, #12
10001864:	4606      	mov	r6, r0
10001866:	f88d 0007 	strb.w	r0, [sp, #7]
1000186a:	f7ff fc0f 	bl	1000108c <time_us_64>
1000186e:	f04f 35ff 	mov.w	r5, #4294967295
10001872:	f06f 4400 	mvn.w	r4, #2147483648	@ 0x80000000
10001876:	4a17      	ldr	r2, [pc, #92]	@ (100018d4 <__wrap_putchar+0x74>)
10001878:	1882      	adds	r2, r0, r2
1000187a:	f141 0300 	adc.w	r3, r1, #0
1000187e:	4295      	cmp	r5, r2
10001880:	eb74 0103 	sbcs.w	r1, r4, r3
10001884:	bf3c      	itt	cc
10001886:	4623      	movcc	r3, r4
10001888:	462a      	movcc	r2, r5
1000188a:	4813      	ldr	r0, [pc, #76]	@ (100018d8 <__wrap_putchar+0x78>)
1000188c:	f003 fac0 	bl	10004e10 <__mutex_try_enter_block_until_veneer>
10001890:	4b12      	ldr	r3, [pc, #72]	@ (100018dc <__wrap_putchar+0x7c>)
10001892:	4607      	mov	r7, r0
10001894:	681c      	ldr	r4, [r3, #0]
10001896:	b19c      	cbz	r4, 100018c0 <__wrap_putchar+0x60>
10001898:	4d11      	ldr	r5, [pc, #68]	@ (100018e0 <__wrap_putchar+0x80>)
1000189a:	e001      	b.n	100018a0 <__wrap_putchar+0x40>
1000189c:	6924      	ldr	r4, [r4, #16]
1000189e:	b17c      	cbz	r4, 100018c0 <__wrap_putchar+0x60>
100018a0:	6823      	ldr	r3, [r4, #0]
100018a2:	2b00      	cmp	r3, #0
100018a4:	d0fa      	beq.n	1000189c <__wrap_putchar+0x3c>
100018a6:	682b      	ldr	r3, [r5, #0]
100018a8:	b10b      	cbz	r3, 100018ae <__wrap_putchar+0x4e>
100018aa:	429c      	cmp	r4, r3
100018ac:	d1f6      	bne.n	1000189c <__wrap_putchar+0x3c>
100018ae:	4620      	mov	r0, r4
100018b0:	2201      	movs	r2, #1
100018b2:	f10d 0107 	add.w	r1, sp, #7
100018b6:	f7ff feeb 	bl	10001690 <stdio_out_chars_crlf>
100018ba:	6924      	ldr	r4, [r4, #16]
100018bc:	2c00      	cmp	r4, #0
100018be:	d1ef      	bne.n	100018a0 <__wrap_putchar+0x40>
100018c0:	b917      	cbnz	r7, 100018c8 <__wrap_putchar+0x68>
100018c2:	4630      	mov	r0, r6
100018c4:	b003      	add	sp, #12
100018c6:	bdf0      	pop	{r4, r5, r6, r7, pc}
100018c8:	4803      	ldr	r0, [pc, #12]	@ (100018d8 <__wrap_putchar+0x78>)
100018ca:	f003 fa99 	bl	10004e00 <__mutex_exit_veneer>
100018ce:	4630      	mov	r0, r6
100018d0:	b003      	add	sp, #12
100018d2:	bdf0      	pop	{r4, r5, r6, r7, pc}
100018d4:	000f4240 	.word	0x000f4240
100018d8:	20000680 	.word	0x20000680
100018dc:	200008ac 	.word	0x200008ac
100018e0:	200008b0 	.word	0x200008b0

100018e4 <__wrap_puts>:
100018e4:	b538      	push	{r3, r4, r5, lr}
100018e6:	4604      	mov	r4, r0
100018e8:	f003 fa5a 	bl	10004da0 <strlen>
100018ec:	2301      	movs	r3, #1
100018ee:	4605      	mov	r5, r0
100018f0:	461a      	mov	r2, r3
100018f2:	4620      	mov	r0, r4
100018f4:	4629      	mov	r1, r5
100018f6:	f7ff ff23 	bl	10001740 <stdio_put_string>
100018fa:	4b08      	ldr	r3, [pc, #32]	@ (1000191c <__wrap_puts+0x38>)
100018fc:	681c      	ldr	r4, [r3, #0]
100018fe:	b12c      	cbz	r4, 1000190c <__wrap_puts+0x28>
10001900:	6863      	ldr	r3, [r4, #4]
10001902:	b12b      	cbz	r3, 10001910 <__wrap_puts+0x2c>
10001904:	4798      	blx	r3
10001906:	6924      	ldr	r4, [r4, #16]
10001908:	2c00      	cmp	r4, #0
1000190a:	d1f9      	bne.n	10001900 <__wrap_puts+0x1c>
1000190c:	4628      	mov	r0, r5
1000190e:	bd38      	pop	{r3, r4, r5, pc}
10001910:	6924      	ldr	r4, [r4, #16]
10001912:	2c00      	cmp	r4, #0
10001914:	d1f4      	bne.n	10001900 <__wrap_puts+0x1c>
10001916:	4628      	mov	r0, r5
10001918:	bd38      	pop	{r3, r4, r5, pc}
1000191a:	bf00      	nop
1000191c:	200008ac 	.word	0x200008ac

10001920 <stdio_uart_out_chars>:
10001920:	f1b1 0c00 	subs.w	ip, r1, #0
10001924:	dd1d      	ble.n	10001962 <stdio_uart_out_chars+0x42>
10001926:	4a0f      	ldr	r2, [pc, #60]	@ (10001964 <stdio_uart_out_chars+0x44>)
10001928:	4b0f      	ldr	r3, [pc, #60]	@ (10001968 <stdio_uart_out_chars+0x48>)
1000192a:	6812      	ldr	r2, [r2, #0]
1000192c:	b530      	push	{r4, r5, lr}
1000192e:	1ad3      	subs	r3, r2, r3
10001930:	fab3 f383 	clz	r3, r3
10001934:	240d      	movs	r4, #13
10001936:	4d0d      	ldr	r5, [pc, #52]	@ (1000196c <stdio_uart_out_chars+0x4c>)
10001938:	095b      	lsrs	r3, r3, #5
1000193a:	1e41      	subs	r1, r0, #1
1000193c:	f935 e013 	ldrsh.w	lr, [r5, r3, lsl #1]
10001940:	448c      	add	ip, r1
10001942:	f811 0f01 	ldrb.w	r0, [r1, #1]!
10001946:	4586      	cmp	lr, r0
10001948:	d006      	beq.n	10001958 <stdio_uart_out_chars+0x38>
1000194a:	6993      	ldr	r3, [r2, #24]
1000194c:	069b      	lsls	r3, r3, #26
1000194e:	d4fc      	bmi.n	1000194a <stdio_uart_out_chars+0x2a>
10001950:	4561      	cmp	r1, ip
10001952:	6010      	str	r0, [r2, #0]
10001954:	d1f5      	bne.n	10001942 <stdio_uart_out_chars+0x22>
10001956:	bd30      	pop	{r4, r5, pc}
10001958:	6993      	ldr	r3, [r2, #24]
1000195a:	069d      	lsls	r5, r3, #26
1000195c:	d4fc      	bmi.n	10001958 <stdio_uart_out_chars+0x38>
1000195e:	6014      	str	r4, [r2, #0]
10001960:	e7f3      	b.n	1000194a <stdio_uart_out_chars+0x2a>
10001962:	4770      	bx	lr
10001964:	20000b94 	.word	0x20000b94
10001968:	40078000 	.word	0x40078000
1000196c:	20000b90 	.word	0x20000b90

10001970 <stdio_uart_in_chars>:
10001970:	4b22      	ldr	r3, [pc, #136]	@ (100019fc <stdio_uart_in_chars+0x8c>)
10001972:	f1b1 0c00 	subs.w	ip, r1, #0
10001976:	b410      	push	{r4}
10001978:	681c      	ldr	r4, [r3, #0]
1000197a:	dd2e      	ble.n	100019da <stdio_uart_in_chars+0x6a>
1000197c:	4603      	mov	r3, r0
1000197e:	2000      	movs	r0, #0
10001980:	4a1f      	ldr	r2, [pc, #124]	@ (10001a00 <stdio_uart_in_chars+0x90>)
10001982:	1e59      	subs	r1, r3, #1
10001984:	6812      	ldr	r2, [r2, #0]
10001986:	6993      	ldr	r3, [r2, #24]
10001988:	06db      	lsls	r3, r3, #27
1000198a:	d417      	bmi.n	100019bc <stdio_uart_in_chars+0x4c>
1000198c:	3001      	adds	r0, #1
1000198e:	6993      	ldr	r3, [r2, #24]
10001990:	06db      	lsls	r3, r3, #27
10001992:	d4fc      	bmi.n	1000198e <stdio_uart_in_chars+0x1e>
10001994:	6813      	ldr	r3, [r2, #0]
10001996:	4584      	cmp	ip, r0
10001998:	f801 3f01 	strb.w	r3, [r1, #1]!
1000199c:	d1f3      	bne.n	10001986 <stdio_uart_in_chars+0x16>
1000199e:	b14c      	cbz	r4, 100019b4 <stdio_uart_in_chars+0x44>
100019a0:	2150      	movs	r1, #80	@ 0x50
100019a2:	4613      	mov	r3, r2
100019a4:	6391      	str	r1, [r2, #56]	@ 0x38
100019a6:	f853 2f34 	ldr.w	r2, [r3, #52]!
100019aa:	f002 0238 	and.w	r2, r2, #56	@ 0x38
100019ae:	f503 5380 	add.w	r3, r3, #4096	@ 0x1000
100019b2:	601a      	str	r2, [r3, #0]
100019b4:	4660      	mov	r0, ip
100019b6:	f85d 4b04 	ldr.w	r4, [sp], #4
100019ba:	4770      	bx	lr
100019bc:	b14c      	cbz	r4, 100019d2 <stdio_uart_in_chars+0x62>
100019be:	2150      	movs	r1, #80	@ 0x50
100019c0:	4613      	mov	r3, r2
100019c2:	6391      	str	r1, [r2, #56]	@ 0x38
100019c4:	f853 2f34 	ldr.w	r2, [r3, #52]!
100019c8:	f002 0238 	and.w	r2, r2, #56	@ 0x38
100019cc:	f503 5380 	add.w	r3, r3, #4096	@ 0x1000
100019d0:	601a      	str	r2, [r3, #0]
100019d2:	b178      	cbz	r0, 100019f4 <stdio_uart_in_chars+0x84>
100019d4:	f85d 4b04 	ldr.w	r4, [sp], #4
100019d8:	4770      	bx	lr
100019da:	b15c      	cbz	r4, 100019f4 <stdio_uart_in_chars+0x84>
100019dc:	4b08      	ldr	r3, [pc, #32]	@ (10001a00 <stdio_uart_in_chars+0x90>)
100019de:	2150      	movs	r1, #80	@ 0x50
100019e0:	681a      	ldr	r2, [r3, #0]
100019e2:	4613      	mov	r3, r2
100019e4:	6391      	str	r1, [r2, #56]	@ 0x38
100019e6:	f853 2f34 	ldr.w	r2, [r3, #52]!
100019ea:	f002 0238 	and.w	r2, r2, #56	@ 0x38
100019ee:	f503 5380 	add.w	r3, r3, #4096	@ 0x1000
100019f2:	601a      	str	r2, [r3, #0]
100019f4:	f06f 0002 	mvn.w	r0, #2
100019f8:	e7dd      	b.n	100019b6 <stdio_uart_in_chars+0x46>
100019fa:	bf00      	nop
100019fc:	20000870 	.word	0x20000870
10001a00:	20000b94 	.word	0x20000b94

10001a04 <on_uart_rx>:
10001a04:	4b05      	ldr	r3, [pc, #20]	@ (10001a1c <on_uart_rx+0x18>)
10001a06:	681b      	ldr	r3, [r3, #0]
10001a08:	b133      	cbz	r3, 10001a18 <on_uart_rx+0x14>
10001a0a:	2100      	movs	r1, #0
10001a0c:	4a04      	ldr	r2, [pc, #16]	@ (10001a20 <on_uart_rx+0x1c>)
10001a0e:	4805      	ldr	r0, [pc, #20]	@ (10001a24 <on_uart_rx+0x20>)
10001a10:	6812      	ldr	r2, [r2, #0]
10001a12:	6800      	ldr	r0, [r0, #0]
10001a14:	6391      	str	r1, [r2, #56]	@ 0x38
10001a16:	4718      	bx	r3
10001a18:	4770      	bx	lr
10001a1a:	bf00      	nop
10001a1c:	20000870 	.word	0x20000870
10001a20:	20000b94 	.word	0x20000b94
10001a24:	20000874 	.word	0x20000874

10001a28 <stdio_uart_out_flush>:
10001a28:	4b02      	ldr	r3, [pc, #8]	@ (10001a34 <stdio_uart_out_flush+0xc>)
10001a2a:	681a      	ldr	r2, [r3, #0]
10001a2c:	6993      	ldr	r3, [r2, #24]
10001a2e:	071b      	lsls	r3, r3, #28
10001a30:	d4fc      	bmi.n	10001a2c <stdio_uart_out_flush+0x4>
10001a32:	4770      	bx	lr
10001a34:	20000b94 	.word	0x20000b94

10001a38 <stdio_uart_set_chars_available_callback>:
10001a38:	b5f8      	push	{r3, r4, r5, r6, r7, lr}
10001a3a:	4f1c      	ldr	r7, [pc, #112]	@ (10001aac <stdio_uart_set_chars_available_callback+0x74>)
10001a3c:	4d1c      	ldr	r5, [pc, #112]	@ (10001ab0 <stdio_uart_set_chars_available_callback+0x78>)
10001a3e:	683a      	ldr	r2, [r7, #0]
10001a40:	4e1c      	ldr	r6, [pc, #112]	@ (10001ab4 <stdio_uart_set_chars_available_callback+0x7c>)
10001a42:	42aa      	cmp	r2, r5
10001a44:	bf14      	ite	ne
10001a46:	2521      	movne	r5, #33	@ 0x21
10001a48:	2522      	moveq	r5, #34	@ 0x22
10001a4a:	4604      	mov	r4, r0
10001a4c:	f8d6 c000 	ldr.w	ip, [r6]
10001a50:	b118      	cbz	r0, 10001a5a <stdio_uart_set_chars_available_callback+0x22>
10001a52:	f1bc 0f00 	cmp.w	ip, #0
10001a56:	d010      	beq.n	10001a7a <stdio_uart_set_chars_available_callback+0x42>
10001a58:	bdf8      	pop	{r3, r4, r5, r6, r7, pc}
10001a5a:	f1bc 0f00 	cmp.w	ip, #0
10001a5e:	d0fb      	beq.n	10001a58 <stdio_uart_set_chars_available_callback+0x20>
10001a60:	4601      	mov	r1, r0
10001a62:	6390      	str	r0, [r2, #56]	@ 0x38
10001a64:	4628      	mov	r0, r5
10001a66:	f7fe fd79 	bl	1000055c <irq_set_enabled>
10001a6a:	4628      	mov	r0, r5
10001a6c:	4912      	ldr	r1, [pc, #72]	@ (10001ab8 <stdio_uart_set_chars_available_callback+0x80>)
10001a6e:	f7fe fdcb 	bl	10000608 <irq_remove_handler>
10001a72:	4b12      	ldr	r3, [pc, #72]	@ (10001abc <stdio_uart_set_chars_available_callback+0x84>)
10001a74:	6034      	str	r4, [r6, #0]
10001a76:	601c      	str	r4, [r3, #0]
10001a78:	bdf8      	pop	{r3, r4, r5, r6, r7, pc}
10001a7a:	460b      	mov	r3, r1
10001a7c:	4a0f      	ldr	r2, [pc, #60]	@ (10001abc <stdio_uart_set_chars_available_callback+0x84>)
10001a7e:	490e      	ldr	r1, [pc, #56]	@ (10001ab8 <stdio_uart_set_chars_available_callback+0x80>)
10001a80:	6030      	str	r0, [r6, #0]
10001a82:	4628      	mov	r0, r5
10001a84:	6013      	str	r3, [r2, #0]
10001a86:	f7fe fd8f 	bl	100005a8 <irq_set_exclusive_handler>
10001a8a:	2101      	movs	r1, #1
10001a8c:	4628      	mov	r0, r5
10001a8e:	f7fe fd65 	bl	1000055c <irq_set_enabled>
10001a92:	683a      	ldr	r2, [r7, #0]
10001a94:	2150      	movs	r1, #80	@ 0x50
10001a96:	4613      	mov	r3, r2
10001a98:	6391      	str	r1, [r2, #56]	@ 0x38
10001a9a:	f853 2f34 	ldr.w	r2, [r3, #52]!
10001a9e:	f002 0238 	and.w	r2, r2, #56	@ 0x38
10001aa2:	f503 5380 	add.w	r3, r3, #4096	@ 0x1000
10001aa6:	601a      	str	r2, [r3, #0]
10001aa8:	bdf8      	pop	{r3, r4, r5, r6, r7, pc}
10001aaa:	bf00      	nop
10001aac:	20000b94 	.word	0x20000b94
10001ab0:	40078000 	.word	0x40078000
10001ab4:	20000870 	.word	0x20000870
10001ab8:	10001a05 	.word	0x10001a05
10001abc:	20000874 	.word	0x20000874

10001ac0 <stdio_uart_init>:
10001ac0:	b510      	push	{r4, lr}
10001ac2:	490e      	ldr	r1, [pc, #56]	@ (10001afc <stdio_uart_init+0x3c>)
10001ac4:	4c0e      	ldr	r4, [pc, #56]	@ (10001b00 <stdio_uart_init+0x40>)
10001ac6:	480f      	ldr	r0, [pc, #60]	@ (10001b04 <stdio_uart_init+0x44>)
10001ac8:	4a0f      	ldr	r2, [pc, #60]	@ (10001b08 <stdio_uart_init+0x48>)
10001aca:	4b10      	ldr	r3, [pc, #64]	@ (10001b0c <stdio_uart_init+0x4c>)
10001acc:	7800      	ldrb	r0, [r0, #0]
10001ace:	6021      	str	r1, [r4, #0]
10001ad0:	2000      	movs	r0, #0
10001ad2:	2102      	movs	r1, #2
10001ad4:	7812      	ldrb	r2, [r2, #0]
10001ad6:	781b      	ldrb	r3, [r3, #0]
10001ad8:	f7fe fc54 	bl	10000384 <gpio_set_function>
10001adc:	2102      	movs	r1, #2
10001ade:	2001      	movs	r0, #1
10001ae0:	f7fe fc50 	bl	10000384 <gpio_set_function>
10001ae4:	f44f 31e1 	mov.w	r1, #115200	@ 0x1c200
10001ae8:	6820      	ldr	r0, [r4, #0]
10001aea:	f7ff fb19 	bl	10001120 <uart_init>
10001aee:	e8bd 4010 	ldmia.w	sp!, {r4, lr}
10001af2:	2101      	movs	r1, #1
10001af4:	4806      	ldr	r0, [pc, #24]	@ (10001b10 <stdio_uart_init+0x50>)
10001af6:	f7ff be99 	b.w	1000182c <stdio_set_driver_enabled>
10001afa:	bf00      	nop
10001afc:	40070000 	.word	0x40070000
10001b00:	20000b94 	.word	0x20000b94
10001b04:	10005018 	.word	0x10005018
10001b08:	10005014 	.word	0x10005014
10001b0c:	10005010 	.word	0x10005010
10001b10:	2000065c 	.word	0x2000065c

10001b14 <core1_trampoline>:
10001b14:	bd03      	pop	{r0, r1, pc}
10001b16:	bf00      	nop

10001b18 <core1_wrapper>:
10001b18:	b510      	push	{r4, lr}
10001b1a:	4604      	mov	r4, r0
10001b1c:	f7ff fc96 	bl	1000144c <runtime_run_per_core_initializers>
10001b20:	4623      	mov	r3, r4
10001b22:	e8bd 4010 	ldmia.w	sp!, {r4, lr}
10001b26:	4718      	bx	r3

10001b28 <multicore_launch_core1_raw>:
10001b28:	b5f0      	push	{r4, r5, r6, r7, lr}
10001b2a:	4605      	mov	r5, r0
10001b2c:	b087      	sub	sp, #28
10001b2e:	2019      	movs	r0, #25
10001b30:	4617      	mov	r7, r2
10001b32:	460e      	mov	r6, r1
10001b34:	f7fe fd28 	bl	10000588 <irq_is_enabled>
10001b38:	2100      	movs	r1, #0
10001b3a:	4604      	mov	r4, r0
10001b3c:	2019      	movs	r0, #25
10001b3e:	f7fe fd0d 	bl	1000055c <irq_set_enabled>
10001b42:	2100      	movs	r1, #0
10001b44:	e9cd 6504 	strd	r6, r5, [sp, #16]
10001b48:	9703      	str	r7, [sp, #12]
10001b4a:	2600      	movs	r6, #0
10001b4c:	2700      	movs	r7, #0
10001b4e:	2201      	movs	r2, #1
10001b50:	f04f 4350 	mov.w	r3, #3489660928	@ 0xd0000000
10001b54:	468c      	mov	ip, r1
10001b56:	e9cd 6700 	strd	r6, r7, [sp]
10001b5a:	9202      	str	r2, [sp, #8]
10001b5c:	b1a9      	cbz	r1, 10001b8a <multicore_launch_core1_raw+0x62>
10001b5e:	6d1a      	ldr	r2, [r3, #80]	@ 0x50
10001b60:	0795      	lsls	r5, r2, #30
10001b62:	d5fc      	bpl.n	10001b5e <multicore_launch_core1_raw+0x36>
10001b64:	6559      	str	r1, [r3, #84]	@ 0x54
10001b66:	bf40      	sev
10001b68:	6d1a      	ldr	r2, [r3, #80]	@ 0x50
10001b6a:	07d0      	lsls	r0, r2, #31
10001b6c:	d403      	bmi.n	10001b76 <multicore_launch_core1_raw+0x4e>
10001b6e:	bf20      	wfe
10001b70:	6d1a      	ldr	r2, [r3, #80]	@ 0x50
10001b72:	07d2      	lsls	r2, r2, #31
10001b74:	d5fb      	bpl.n	10001b6e <multicore_launch_core1_raw+0x46>
10001b76:	6d9a      	ldr	r2, [r3, #88]	@ 0x58
10001b78:	428a      	cmp	r2, r1
10001b7a:	d00b      	beq.n	10001b94 <multicore_launch_core1_raw+0x6c>
10001b7c:	f04f 0c00 	mov.w	ip, #0
10001b80:	eb0d 028c 	add.w	r2, sp, ip, lsl #2
10001b84:	6811      	ldr	r1, [r2, #0]
10001b86:	e7e9      	b.n	10001b5c <multicore_launch_core1_raw+0x34>
10001b88:	6d9a      	ldr	r2, [r3, #88]	@ 0x58
10001b8a:	6d1a      	ldr	r2, [r3, #80]	@ 0x50
10001b8c:	07d6      	lsls	r6, r2, #31
10001b8e:	d4fb      	bmi.n	10001b88 <multicore_launch_core1_raw+0x60>
10001b90:	bf40      	sev
10001b92:	e7e4      	b.n	10001b5e <multicore_launch_core1_raw+0x36>
10001b94:	f10c 0c01 	add.w	ip, ip, #1
10001b98:	f1bc 0f06 	cmp.w	ip, #6
10001b9c:	d1f0      	bne.n	10001b80 <multicore_launch_core1_raw+0x58>
10001b9e:	4621      	mov	r1, r4
10001ba0:	2019      	movs	r0, #25
10001ba2:	b007      	add	sp, #28
10001ba4:	e8bd 40f0 	ldmia.w	sp!, {r4, r5, r6, r7, lr}
10001ba8:	f7fe bcd8 	b.w	1000055c <irq_set_enabled>

10001bac <multicore_launch_core1>:
10001bac:	4b0c      	ldr	r3, [pc, #48]	@ (10001be0 <multicore_launch_core1+0x34>)
10001bae:	4a0d      	ldr	r2, [pc, #52]	@ (10001be4 <multicore_launch_core1+0x38>)
10001bb0:	4293      	cmp	r3, r2
10001bb2:	d30e      	bcc.n	10001bd2 <multicore_launch_core1+0x26>
10001bb4:	469c      	mov	ip, r3
10001bb6:	f203 71f4 	addw	r1, r3, #2036	@ 0x7f4
10001bba:	4a0b      	ldr	r2, [pc, #44]	@ (10001be8 <multicore_launch_core1+0x3c>)
10001bbc:	6892      	ldr	r2, [r2, #8]
10001bbe:	f8cc 07f4 	str.w	r0, [ip, #2036]	@ 0x7f4
10001bc2:	480a      	ldr	r0, [pc, #40]	@ (10001bec <multicore_launch_core1+0x40>)
10001bc4:	f8cc 37f8 	str.w	r3, [ip, #2040]	@ 0x7f8
10001bc8:	f8cc 07fc 	str.w	r0, [ip, #2044]	@ 0x7fc
10001bcc:	4808      	ldr	r0, [pc, #32]	@ (10001bf0 <multicore_launch_core1+0x44>)
10001bce:	f7ff bfab 	b.w	10001b28 <multicore_launch_core1_raw>
10001bd2:	f04f 33ff 	mov.w	r3, #4294967295
10001bd6:	f240 71f3 	movw	r1, #2035	@ 0x7f3
10001bda:	469c      	mov	ip, r3
10001bdc:	e7ed      	b.n	10001bba <multicore_launch_core1+0xe>
10001bde:	bf00      	nop
10001be0:	20080800 	.word	0x20080800
10001be4:	20080000 	.word	0x20080000
10001be8:	e000ed00 	.word	0xe000ed00
10001bec:	10001b19 	.word	0x10001b19
10001bf0:	10001b15 	.word	0x10001b15

10001bf4 <multicore_doorbell_claim_unused>:
10001bf4:	b5f8      	push	{r3, r4, r5, r6, r7, lr}
10001bf6:	4604      	mov	r4, r0
10001bf8:	4e3a      	ldr	r6, [pc, #232]	@ (10001ce4 <multicore_doorbell_claim_unused+0xf0>)
10001bfa:	460f      	mov	r7, r1
10001bfc:	f7fe fc1c 	bl	10000438 <hw_claim_lock>
10001c00:	78b1      	ldrb	r1, [r6, #2]
10001c02:	f996 3000 	ldrsb.w	r3, [r6]
10001c06:	f001 0101 	and.w	r1, r1, #1
10001c0a:	0fdb      	lsrs	r3, r3, #31
10001c0c:	ea43 0341 	orr.w	r3, r3, r1, lsl #1
10001c10:	4223      	tst	r3, r4
10001c12:	7832      	ldrb	r2, [r6, #0]
10001c14:	d056      	beq.n	10001cc4 <multicore_doorbell_claim_unused+0xd0>
10001c16:	f996 3001 	ldrsb.w	r3, [r6, #1]
10001c1a:	f3c2 1180 	ubfx	r1, r2, #6, #1
10001c1e:	0fdb      	lsrs	r3, r3, #31
10001c20:	ea41 0143 	orr.w	r1, r1, r3, lsl #1
10001c24:	4221      	tst	r1, r4
10001c26:	7873      	ldrb	r3, [r6, #1]
10001c28:	d04f      	beq.n	10001cca <multicore_doorbell_claim_unused+0xd6>
10001c2a:	f3c3 1580 	ubfx	r5, r3, #6, #1
10001c2e:	f3c2 1140 	ubfx	r1, r2, #5, #1
10001c32:	ea41 0145 	orr.w	r1, r1, r5, lsl #1
10001c36:	4221      	tst	r1, r4
10001c38:	d04a      	beq.n	10001cd0 <multicore_doorbell_claim_unused+0xdc>
10001c3a:	f3c3 1540 	ubfx	r5, r3, #5, #1
10001c3e:	f3c2 1100 	ubfx	r1, r2, #4, #1
10001c42:	ea41 0145 	orr.w	r1, r1, r5, lsl #1
10001c46:	4221      	tst	r1, r4
10001c48:	d045      	beq.n	10001cd6 <multicore_doorbell_claim_unused+0xe2>
10001c4a:	f3c3 1500 	ubfx	r5, r3, #4, #1
10001c4e:	f3c2 01c0 	ubfx	r1, r2, #3, #1
10001c52:	ea41 0145 	orr.w	r1, r1, r5, lsl #1
10001c56:	4221      	tst	r1, r4
10001c58:	d040      	beq.n	10001cdc <multicore_doorbell_claim_unused+0xe8>
10001c5a:	f3c3 05c0 	ubfx	r5, r3, #3, #1
10001c5e:	f3c2 0180 	ubfx	r1, r2, #2, #1
10001c62:	ea41 0145 	orr.w	r1, r1, r5, lsl #1
10001c66:	4221      	tst	r1, r4
10001c68:	d012      	beq.n	10001c90 <multicore_doorbell_claim_unused+0x9c>
10001c6a:	f3c3 0580 	ubfx	r5, r3, #2, #1
10001c6e:	f3c2 0140 	ubfx	r1, r2, #1, #1
10001c72:	ea41 0145 	orr.w	r1, r1, r5, lsl #1
10001c76:	4221      	tst	r1, r4
10001c78:	d019      	beq.n	10001cae <multicore_doorbell_claim_unused+0xba>
10001c7a:	f003 0502 	and.w	r5, r3, #2
10001c7e:	f002 0301 	and.w	r3, r2, #1
10001c82:	431d      	orrs	r5, r3
10001c84:	4025      	ands	r5, r4
10001c86:	d015      	beq.n	10001cb4 <multicore_doorbell_claim_unused+0xc0>
10001c88:	b1b7      	cbz	r7, 10001cb8 <multicore_doorbell_claim_unused+0xc4>
10001c8a:	4817      	ldr	r0, [pc, #92]	@ (10001ce8 <multicore_doorbell_claim_unused+0xf4>)
10001c8c:	f7fe fbbc 	bl	10000408 <panic>
10001c90:	2502      	movs	r5, #2
10001c92:	2304      	movs	r3, #4
10001c94:	07e1      	lsls	r1, r4, #31
10001c96:	bf44      	itt	mi
10001c98:	431a      	orrmi	r2, r3
10001c9a:	7032      	strbmi	r2, [r6, #0]
10001c9c:	07a2      	lsls	r2, r4, #30
10001c9e:	d502      	bpl.n	10001ca6 <multicore_doorbell_claim_unused+0xb2>
10001ca0:	7872      	ldrb	r2, [r6, #1]
10001ca2:	4313      	orrs	r3, r2
10001ca4:	7073      	strb	r3, [r6, #1]
10001ca6:	f7fe fbd9 	bl	1000045c <hw_claim_unlock>
10001caa:	4628      	mov	r0, r5
10001cac:	bdf8      	pop	{r3, r4, r5, r6, r7, pc}
10001cae:	2501      	movs	r5, #1
10001cb0:	2302      	movs	r3, #2
10001cb2:	e7ef      	b.n	10001c94 <multicore_doorbell_claim_unused+0xa0>
10001cb4:	2301      	movs	r3, #1
10001cb6:	e7ed      	b.n	10001c94 <multicore_doorbell_claim_unused+0xa0>
10001cb8:	f06f 0508 	mvn.w	r5, #8
10001cbc:	f7fe fbce 	bl	1000045c <hw_claim_unlock>
10001cc0:	4628      	mov	r0, r5
10001cc2:	bdf8      	pop	{r3, r4, r5, r6, r7, pc}
10001cc4:	2507      	movs	r5, #7
10001cc6:	2380      	movs	r3, #128	@ 0x80
10001cc8:	e7e4      	b.n	10001c94 <multicore_doorbell_claim_unused+0xa0>
10001cca:	2506      	movs	r5, #6
10001ccc:	2340      	movs	r3, #64	@ 0x40
10001cce:	e7e1      	b.n	10001c94 <multicore_doorbell_claim_unused+0xa0>
10001cd0:	2505      	movs	r5, #5
10001cd2:	2320      	movs	r3, #32
10001cd4:	e7de      	b.n	10001c94 <multicore_doorbell_claim_unused+0xa0>
10001cd6:	2504      	movs	r5, #4
10001cd8:	2310      	movs	r3, #16
10001cda:	e7db      	b.n	10001c94 <multicore_doorbell_claim_unused+0xa0>
10001cdc:	2503      	movs	r5, #3
10001cde:	2308      	movs	r3, #8
10001ce0:	e7d8      	b.n	10001c94 <multicore_doorbell_claim_unused+0xa0>
10001ce2:	bf00      	nop
10001ce4:	200008a8 	.word	0x200008a8
10001ce8:	10004f40 	.word	0x10004f40

10001cec <prvDoorbellInterruptHandler>:
10001cec:	4b0a      	ldr	r3, [pc, #40]	@ (10001d18 <prvDoorbellInterruptHandler+0x2c>)
10001cee:	f993 2000 	ldrsb.w	r2, [r3]
10001cf2:	2a00      	cmp	r2, #0
10001cf4:	db0f      	blt.n	10001d16 <prvDoorbellInterruptHandler+0x2a>
10001cf6:	f04f 4150 	mov.w	r1, #3489660928	@ 0xd0000000
10001cfa:	2301      	movs	r3, #1
10001cfc:	f8d1 0188 	ldr.w	r0, [r1, #392]	@ 0x188
10001d00:	4093      	lsls	r3, r2
10001d02:	4218      	tst	r0, r3
10001d04:	d007      	beq.n	10001d16 <prvDoorbellInterruptHandler+0x2a>
10001d06:	f04f 22e0 	mov.w	r2, #3758153728	@ 0xe000e000
10001d0a:	f04f 5080 	mov.w	r0, #268435456	@ 0x10000000
10001d0e:	f8c1 318c 	str.w	r3, [r1, #396]	@ 0x18c
10001d12:	f8c2 0d04 	str.w	r0, [r2, #3332]	@ 0xd04
10001d16:	4770      	bx	lr
10001d18:	20000674 	.word	0x20000674

10001d1c <prvTaskExitError>:
10001d1c:	2300      	movs	r3, #0
10001d1e:	b500      	push	{lr}
10001d20:	b083      	sub	sp, #12
10001d22:	9301      	str	r3, [sp, #4]
10001d24:	f000 fa90 	bl	10002248 <ulSetInterruptMask>
10001d28:	9b01      	ldr	r3, [sp, #4]
10001d2a:	2b00      	cmp	r3, #0
10001d2c:	d0fc      	beq.n	10001d28 <prvTaskExitError+0xc>
10001d2e:	b003      	add	sp, #12
10001d30:	f85d fb04 	ldr.w	pc, [sp], #4

10001d34 <SysTick_Handler>:
10001d34:	b510      	push	{r4, lr}
10001d36:	f002 fb7d 	bl	10004434 <vTaskEnterCriticalFromISR>
10001d3a:	4604      	mov	r4, r0
10001d3c:	f001 fc1e 	bl	1000357c <xTaskIncrementTick>
10001d40:	b128      	cbz	r0, 10001d4e <SysTick_Handler+0x1a>
10001d42:	f04f 23e0 	mov.w	r3, #3758153728	@ 0xe000e000
10001d46:	f04f 5280 	mov.w	r2, #268435456	@ 0x10000000
10001d4a:	f8c3 2d04 	str.w	r2, [r3, #3332]	@ 0xd04
10001d4e:	4620      	mov	r0, r4
10001d50:	e8bd 4010 	ldmia.w	sp!, {r4, lr}
10001d54:	f002 bc04 	b.w	10004560 <vTaskExitCriticalFromISR>

10001d58 <vPortSetupTimerInterrupt>:
10001d58:	b510      	push	{r4, lr}
10001d5a:	2204      	movs	r2, #4
10001d5c:	f04f 24e0 	mov.w	r4, #3758153728	@ 0xe000e000
10001d60:	2300      	movs	r3, #0
10001d62:	6122      	str	r2, [r4, #16]
10001d64:	2005      	movs	r0, #5
10001d66:	61a3      	str	r3, [r4, #24]
10001d68:	f7ff fac4 	bl	100012f4 <clock_get_hz>
10001d6c:	2107      	movs	r1, #7
10001d6e:	4b04      	ldr	r3, [pc, #16]	@ (10001d80 <vPortSetupTimerInterrupt+0x28>)
10001d70:	fba3 2300 	umull	r2, r3, r3, r0
10001d74:	099b      	lsrs	r3, r3, #6
10001d76:	3b01      	subs	r3, #1
10001d78:	6163      	str	r3, [r4, #20]
10001d7a:	6121      	str	r1, [r4, #16]
10001d7c:	bd10      	pop	{r4, pc}
10001d7e:	bf00      	nop
10001d80:	10624dd3 	.word	0x10624dd3

10001d84 <xPortStartSchedulerOnCore.isra.0>:
10001d84:	f04f 23e0 	mov.w	r3, #3758153728	@ 0xe000e000
10001d88:	f04f 427f 	mov.w	r2, #4278190080	@ 0xff000000
10001d8c:	2100      	movs	r1, #0
10001d8e:	b530      	push	{r4, r5, lr}
10001d90:	b085      	sub	sp, #20
10001d92:	9103      	str	r1, [sp, #12]
10001d94:	f8c3 2d1c 	str.w	r2, [r3, #3356]	@ 0xd1c
10001d98:	f8d3 3d1c 	ldr.w	r3, [r3, #3356]	@ 0xd1c
10001d9c:	0e1b      	lsrs	r3, r3, #24
10001d9e:	f88d 3007 	strb.w	r3, [sp, #7]
10001da2:	f89d 3007 	ldrb.w	r3, [sp, #7]
10001da6:	f89d 3007 	ldrb.w	r3, [sp, #7]
10001daa:	061a      	lsls	r2, r3, #24
10001dac:	d50c      	bpl.n	10001dc8 <xPortStartSchedulerOnCore.isra.0+0x44>
10001dae:	9b03      	ldr	r3, [sp, #12]
10001db0:	3301      	adds	r3, #1
10001db2:	9303      	str	r3, [sp, #12]
10001db4:	f89d 3007 	ldrb.w	r3, [sp, #7]
10001db8:	005b      	lsls	r3, r3, #1
10001dba:	b2db      	uxtb	r3, r3
10001dbc:	f88d 3007 	strb.w	r3, [sp, #7]
10001dc0:	f89d 3007 	ldrb.w	r3, [sp, #7]
10001dc4:	061b      	lsls	r3, r3, #24
10001dc6:	d4f2      	bmi.n	10001dae <xPortStartSchedulerOnCore.isra.0+0x2a>
10001dc8:	9b03      	ldr	r3, [sp, #12]
10001dca:	2b08      	cmp	r3, #8
10001dcc:	d040      	beq.n	10001e50 <xPortStartSchedulerOnCore.isra.0+0xcc>
10001dce:	9b03      	ldr	r3, [sp, #12]
10001dd0:	f1c3 0307 	rsb	r3, r3, #7
10001dd4:	021b      	lsls	r3, r3, #8
10001dd6:	f403 63e0 	and.w	r3, r3, #1792	@ 0x700
10001dda:	f04f 4150 	mov.w	r1, #3489660928	@ 0xd0000000
10001dde:	4825      	ldr	r0, [pc, #148]	@ (10001e74 <xPortStartSchedulerOnCore.isra.0+0xf0>)
10001de0:	4a25      	ldr	r2, [pc, #148]	@ (10001e78 <xPortStartSchedulerOnCore.isra.0+0xf4>)
10001de2:	6003      	str	r3, [r0, #0]
10001de4:	7812      	ldrb	r2, [r2, #0]
10001de6:	680b      	ldr	r3, [r1, #0]
10001de8:	429a      	cmp	r2, r3
10001dea:	d033      	beq.n	10001e54 <xPortStartSchedulerOnCore.isra.0+0xd0>
10001dec:	f04f 23e0 	mov.w	r3, #3758153728	@ 0xe000e000
10001df0:	2400      	movs	r4, #0
10001df2:	f04f 4550 	mov.w	r5, #3489660928	@ 0xd0000000
10001df6:	f8d3 2d20 	ldr.w	r2, [r3, #3360]	@ 0xd20
10001dfa:	4920      	ldr	r1, [pc, #128]	@ (10001e7c <xPortStartSchedulerOnCore.isra.0+0xf8>)
10001dfc:	f442 027f 	orr.w	r2, r2, #16711680	@ 0xff0000
10001e00:	f8c3 2d20 	str.w	r2, [r3, #3360]	@ 0xd20
10001e04:	200e      	movs	r0, #14
10001e06:	f8c3 4d1c 	str.w	r4, [r3, #3356]	@ 0xd1c
10001e0a:	f002 fe03 	bl	10004a14 <exception_set_exclusive_handler>
10001e0e:	491c      	ldr	r1, [pc, #112]	@ (10001e80 <xPortStartSchedulerOnCore.isra.0+0xfc>)
10001e10:	200b      	movs	r0, #11
10001e12:	f002 fdff 	bl	10004a14 <exception_set_exclusive_handler>
10001e16:	4b1b      	ldr	r3, [pc, #108]	@ (10001e84 <xPortStartSchedulerOnCore.isra.0+0x100>)
10001e18:	682a      	ldr	r2, [r5, #0]
10001e1a:	21ff      	movs	r1, #255	@ 0xff
10001e1c:	201a      	movs	r0, #26
10001e1e:	f843 4022 	str.w	r4, [r3, r2, lsl #2]
10001e22:	f7fe fceb 	bl	100007fc <irq_set_priority>
10001e26:	201a      	movs	r0, #26
10001e28:	4917      	ldr	r1, [pc, #92]	@ (10001e88 <xPortStartSchedulerOnCore.isra.0+0x104>)
10001e2a:	f7fe fbbd 	bl	100005a8 <irq_set_exclusive_handler>
10001e2e:	2101      	movs	r1, #1
10001e30:	201a      	movs	r0, #26
10001e32:	f7fe fb93 	bl	1000055c <irq_set_enabled>
10001e36:	f000 f9ff 	bl	10002238 <vStartFirstTask>
10001e3a:	6828      	ldr	r0, [r5, #0]
10001e3c:	f001 fcb8 	bl	100037b0 <vTaskSwitchContext>
10001e40:	9402      	str	r4, [sp, #8]
10001e42:	f000 fa01 	bl	10002248 <ulSetInterruptMask>
10001e46:	9b02      	ldr	r3, [sp, #8]
10001e48:	2b00      	cmp	r3, #0
10001e4a:	d0fc      	beq.n	10001e46 <xPortStartSchedulerOnCore.isra.0+0xc2>
10001e4c:	b005      	add	sp, #20
10001e4e:	bd30      	pop	{r4, r5, pc}
10001e50:	2300      	movs	r3, #0
10001e52:	e7c2      	b.n	10001dda <xPortStartSchedulerOnCore.isra.0+0x56>
10001e54:	f7ff ff80 	bl	10001d58 <vPortSetupTimerInterrupt>
10001e58:	f04f 22e0 	mov.w	r2, #3758153728	@ 0xe000e000
10001e5c:	f8d2 3d20 	ldr.w	r3, [r2, #3360]	@ 0xd20
10001e60:	490a      	ldr	r1, [pc, #40]	@ (10001e8c <xPortStartSchedulerOnCore.isra.0+0x108>)
10001e62:	f043 437f 	orr.w	r3, r3, #4278190080	@ 0xff000000
10001e66:	f8c2 3d20 	str.w	r3, [r2, #3360]	@ 0xd20
10001e6a:	200f      	movs	r0, #15
10001e6c:	f002 fdd2 	bl	10004a14 <exception_set_exclusive_handler>
10001e70:	e7bc      	b.n	10001dec <xPortStartSchedulerOnCore.isra.0+0x68>
10001e72:	bf00      	nop
10001e74:	20020ba8 	.word	0x20020ba8
10001e78:	20000675 	.word	0x20000675
10001e7c:	10002271 	.word	0x10002271
10001e80:	10002309 	.word	0x10002309
10001e84:	20020ba0 	.word	0x20020ba0
10001e88:	10001ced 	.word	0x10001ced
10001e8c:	10001d35 	.word	0x10001d35

10001e90 <prvDisableInterruptsAndPortStartSchedulerOnCore>:
10001e90:	b508      	push	{r3, lr}
10001e92:	f000 f9d9 	bl	10002248 <ulSetInterruptMask>
10001e96:	e8bd 4008 	ldmia.w	sp!, {r3, lr}
10001e9a:	f7ff bf73 	b.w	10001d84 <xPortStartSchedulerOnCore.isra.0>
10001e9e:	bf00      	nop

10001ea0 <vPortYield>:
10001ea0:	f04f 23e0 	mov.w	r3, #3758153728	@ 0xe000e000
10001ea4:	f04f 5280 	mov.w	r2, #268435456	@ 0x10000000
10001ea8:	f8c3 2d04 	str.w	r2, [r3, #3332]	@ 0xd04
10001eac:	f3bf 8f4f 	dsb	sy
10001eb0:	f3bf 8f6f 	isb	sy
10001eb4:	4770      	bx	lr
10001eb6:	bf00      	nop

10001eb8 <vPortSVCHandler_C>:
10001eb8:	6983      	ldr	r3, [r0, #24]
10001eba:	f813 3c02 	ldrb.w	r3, [r3, #-2]
10001ebe:	2b66      	cmp	r3, #102	@ 0x66
10001ec0:	d000      	beq.n	10001ec4 <vPortSVCHandler_C+0xc>
10001ec2:	4770      	bx	lr
10001ec4:	f04f 23e0 	mov.w	r3, #3758153728	@ 0xe000e000
10001ec8:	f8d3 2d88 	ldr.w	r2, [r3, #3464]	@ 0xd88
10001ecc:	f442 0270 	orr.w	r2, r2, #15728640	@ 0xf00000
10001ed0:	f8c3 2d88 	str.w	r2, [r3, #3464]	@ 0xd88
10001ed4:	f8d3 2f34 	ldr.w	r2, [r3, #3892]	@ 0xf34
10001ed8:	f042 4240 	orr.w	r2, r2, #3221225472	@ 0xc0000000
10001edc:	f8c3 2f34 	str.w	r2, [r3, #3892]	@ 0xf34
10001ee0:	f000 b98e 	b.w	10002200 <vRestoreContextOfFirstTask>

10001ee4 <pxPortInitialiseStack>:
10001ee4:	e92d 4ff0 	stmdb	sp!, {r4, r5, r6, r7, r8, r9, sl, fp, lr}
10001ee8:	f04f 3e11 	mov.w	lr, #286331153	@ 0x11111111
10001eec:	f04f 7480 	mov.w	r4, #16777216	@ 0x1000000
10001ef0:	e940 e309 	strd	lr, r3, [r0, #-36]	@ 0x24
10001ef4:	f04f 3307 	mov.w	r3, #117901063	@ 0x7070707
10001ef8:	f840 4c04 	str.w	r4, [r0, #-4]
10001efc:	4c16      	ldr	r4, [pc, #88]	@ (10001f58 <pxPortInitialiseStack+0x74>)
10001efe:	f840 3c34 	str.w	r3, [r0, #-52]
10001f02:	e940 4203 	strd	r4, r2, [r0, #-12]
10001f06:	f04f 3305 	mov.w	r3, #84215045	@ 0x5050505
10001f0a:	f04f 3206 	mov.w	r2, #101058054	@ 0x6060606
10001f0e:	f04f 3b12 	mov.w	fp, #303174162	@ 0x12121212
10001f12:	e940 320f 	strd	r3, r2, [r0, #-60]	@ 0x3c
10001f16:	f04f 3a03 	mov.w	sl, #50529027	@ 0x3030303
10001f1a:	f04f 3902 	mov.w	r9, #33686018	@ 0x2020202
10001f1e:	f04f 3801 	mov.w	r8, #16843009	@ 0x1010101
10001f22:	f04f 3710 	mov.w	r7, #269488144	@ 0x10101010
10001f26:	f04f 3609 	mov.w	r6, #151587081	@ 0x9090909
10001f2a:	f04f 3508 	mov.w	r5, #134744072	@ 0x8080808
10001f2e:	f04f 3404 	mov.w	r4, #67372036	@ 0x4040404
10001f32:	f06f 0302 	mvn.w	r3, #2
10001f36:	e940 ab05 	strd	sl, fp, [r0, #-20]
10001f3a:	e940 8907 	strd	r8, r9, [r0, #-28]
10001f3e:	e940 670b 	strd	r6, r7, [r0, #-44]	@ 0x2c
10001f42:	f840 5c30 	str.w	r5, [r0, #-48]
10001f46:	f840 4c40 	str.w	r4, [r0, #-64]
10001f4a:	f840 3c44 	str.w	r3, [r0, #-68]
10001f4e:	f840 1d48 	str.w	r1, [r0, #-72]!
10001f52:	e8bd 8ff0 	ldmia.w	sp!, {r4, r5, r6, r7, r8, r9, sl, fp, pc}
10001f56:	bf00      	nop
10001f58:	10001d1d 	.word	0x10001d1d

10001f5c <xPortStartScheduler>:
10001f5c:	b570      	push	{r4, r5, r6, lr}
10001f5e:	200e      	movs	r0, #14
10001f60:	f7fe fabe 	bl	100004e0 <spin_lock_claim>
10001f64:	200f      	movs	r0, #15
10001f66:	f7fe fabb 	bl	100004e0 <spin_lock_claim>
10001f6a:	2101      	movs	r1, #1
10001f6c:	2003      	movs	r0, #3
10001f6e:	f7ff fe41 	bl	10001bf4 <multicore_doorbell_claim_unused>
10001f72:	4602      	mov	r2, r0
10001f74:	2301      	movs	r3, #1
10001f76:	f04f 4150 	mov.w	r1, #3489660928	@ 0xd0000000
10001f7a:	2400      	movs	r4, #0
10001f7c:	b252      	sxtb	r2, r2
10001f7e:	4e08      	ldr	r6, [pc, #32]	@ (10001fa0 <xPortStartScheduler+0x44>)
10001f80:	4093      	lsls	r3, r2
10001f82:	4d08      	ldr	r5, [pc, #32]	@ (10001fa4 <xPortStartScheduler+0x48>)
10001f84:	7032      	strb	r2, [r6, #0]
10001f86:	4808      	ldr	r0, [pc, #32]	@ (10001fa8 <xPortStartScheduler+0x4c>)
10001f88:	f8c1 318c 	str.w	r3, [r1, #396]	@ 0x18c
10001f8c:	f8c1 3184 	str.w	r3, [r1, #388]	@ 0x184
10001f90:	702c      	strb	r4, [r5, #0]
10001f92:	f7ff fe0b 	bl	10001bac <multicore_launch_core1>
10001f96:	f7ff fef5 	bl	10001d84 <xPortStartSchedulerOnCore.isra.0>
10001f9a:	4620      	mov	r0, r4
10001f9c:	bd70      	pop	{r4, r5, r6, pc}
10001f9e:	bf00      	nop
10001fa0:	20000674 	.word	0x20000674
10001fa4:	20000675 	.word	0x20000675
10001fa8:	10001e91 	.word	0x10001e91

10001fac <vPortValidateInterruptPriority>:
10001fac:	f3ef 8305 	mrs	r3, IPSR
10001fb0:	2b0f      	cmp	r3, #15
10001fb2:	bf84      	itt	hi
10001fb4:	4a01      	ldrhi	r2, [pc, #4]	@ (10001fbc <vPortValidateInterruptPriority+0x10>)
10001fb6:	5c9b      	ldrbhi	r3, [r3, r2]
10001fb8:	4770      	bx	lr
10001fba:	bf00      	nop
10001fbc:	e000e3f0 	.word	0xe000e3f0

10001fc0 <ulPortLockGetCurrentOwnerId>:
10001fc0:	4b09      	ldr	r3, [pc, #36]	@ (10001fe8 <ulPortLockGetCurrentOwnerId+0x28>)
10001fc2:	781b      	ldrb	r3, [r3, #0]
10001fc4:	2bff      	cmp	r3, #255	@ 0xff
10001fc6:	d00b      	beq.n	10001fe0 <ulPortLockGetCurrentOwnerId+0x20>
10001fc8:	f3ef 8305 	mrs	r3, IPSR
10001fcc:	b2db      	uxtb	r3, r3
10001fce:	b12b      	cbz	r3, 10001fdc <ulPortLockGetCurrentOwnerId+0x1c>
10001fd0:	f04f 4250 	mov.w	r2, #3489660928	@ 0xd0000000
10001fd4:	6810      	ldr	r0, [r2, #0]
10001fd6:	eb00 0043 	add.w	r0, r0, r3, lsl #1
10001fda:	4770      	bx	lr
10001fdc:	f001 bea0 	b.w	10003d20 <xTaskGetCurrentTaskHandle>
10001fe0:	f04f 4350 	mov.w	r3, #3489660928	@ 0xd0000000
10001fe4:	6818      	ldr	r0, [r3, #0]
10001fe6:	4770      	bx	lr
10001fe8:	20000675 	.word	0x20000675

10001fec <vPortLockInternalSpinUnlockWithWait>:
10001fec:	4b14      	ldr	r3, [pc, #80]	@ (10002040 <vPortLockInternalSpinUnlockWithWait+0x54>)
10001fee:	6802      	ldr	r2, [r0, #0]
10001ff0:	781b      	ldrb	r3, [r3, #0]
10001ff2:	2bff      	cmp	r3, #255	@ 0xff
10001ff4:	d106      	bne.n	10002004 <vPortLockInternalSpinUnlockWithWait+0x18>
10001ff6:	2300      	movs	r3, #0
10001ff8:	e8c2 3f8f 	stlb	r3, [r2]
10001ffc:	f381 8810 	msr	PRIMASK, r1
10002000:	bf20      	wfe
10002002:	4770      	bx	lr
10002004:	b510      	push	{r4, lr}
10002006:	2300      	movs	r3, #0
10002008:	b082      	sub	sp, #8
1000200a:	e8c2 3f8f 	stlb	r3, [r2]
1000200e:	f381 8810 	msr	PRIMASK, r1
10002012:	f04f 34ff 	mov.w	r4, #4294967295
10002016:	2201      	movs	r2, #1
10002018:	6801      	ldr	r1, [r0, #0]
1000201a:	480a      	ldr	r0, [pc, #40]	@ (10002044 <vPortLockInternalSpinUnlockWithWait+0x58>)
1000201c:	9400      	str	r4, [sp, #0]
1000201e:	1a09      	subs	r1, r1, r0
10002020:	4809      	ldr	r0, [pc, #36]	@ (10002048 <vPortLockInternalSpinUnlockWithWait+0x5c>)
10002022:	fba0 c001 	umull	ip, r0, r0, r1
10002026:	0900      	lsrs	r0, r0, #4
10002028:	eb00 0040 	add.w	r0, r0, r0, lsl #1
1000202c:	eba1 01c0 	sub.w	r1, r1, r0, lsl #3
10002030:	4806      	ldr	r0, [pc, #24]	@ (1000204c <vPortLockInternalSpinUnlockWithWait+0x60>)
10002032:	fa02 f101 	lsl.w	r1, r2, r1
10002036:	6800      	ldr	r0, [r0, #0]
10002038:	f000 f9b2 	bl	100023a0 <xEventGroupWaitBits>
1000203c:	b002      	add	sp, #8
1000203e:	bd10      	pop	{r4, pc}
10002040:	20000675 	.word	0x20000675
10002044:	20000850 	.word	0x20000850
10002048:	aaaaaaab 	.word	0xaaaaaaab
1000204c:	20020c10 	.word	0x20020c10

10002050 <vPortLockInternalSpinUnlockWithNotify>:
10002050:	b510      	push	{r4, lr}
10002052:	4b1f      	ldr	r3, [pc, #124]	@ (100020d0 <vPortLockInternalSpinUnlockWithNotify+0x80>)
10002054:	468e      	mov	lr, r1
10002056:	781b      	ldrb	r3, [r3, #0]
10002058:	b082      	sub	sp, #8
1000205a:	2bff      	cmp	r3, #255	@ 0xff
1000205c:	d02e      	beq.n	100020bc <vPortLockInternalSpinUnlockWithNotify+0x6c>
1000205e:	f04f 0c01 	mov.w	ip, #1
10002062:	6802      	ldr	r2, [r0, #0]
10002064:	4b1b      	ldr	r3, [pc, #108]	@ (100020d4 <vPortLockInternalSpinUnlockWithNotify+0x84>)
10002066:	1ad2      	subs	r2, r2, r3
10002068:	4b1b      	ldr	r3, [pc, #108]	@ (100020d8 <vPortLockInternalSpinUnlockWithNotify+0x88>)
1000206a:	fba3 1302 	umull	r1, r3, r3, r2
1000206e:	091b      	lsrs	r3, r3, #4
10002070:	eb03 0343 	add.w	r3, r3, r3, lsl #1
10002074:	eba2 02c3 	sub.w	r2, r2, r3, lsl #3
10002078:	fa0c f102 	lsl.w	r1, ip, r2
1000207c:	bf40      	sev
1000207e:	2400      	movs	r4, #0
10002080:	6803      	ldr	r3, [r0, #0]
10002082:	e8c3 4f8f 	stlb	r4, [r3]
10002086:	f38e 8810 	msr	PRIMASK, lr
1000208a:	f3ef 8305 	mrs	r3, IPSR
1000208e:	4a13      	ldr	r2, [pc, #76]	@ (100020dc <vPortLockInternalSpinUnlockWithNotify+0x8c>)
10002090:	b2db      	uxtb	r3, r3
10002092:	6810      	ldr	r0, [r2, #0]
10002094:	b923      	cbnz	r3, 100020a0 <vPortLockInternalSpinUnlockWithNotify+0x50>
10002096:	b002      	add	sp, #8
10002098:	e8bd 4010 	ldmia.w	sp!, {r4, lr}
1000209c:	f000 b9d8 	b.w	10002450 <xEventGroupSetBits>
100020a0:	aa01      	add	r2, sp, #4
100020a2:	9401      	str	r4, [sp, #4]
100020a4:	f000 fa08 	bl	100024b8 <xEventGroupSetBitsFromISR>
100020a8:	9b01      	ldr	r3, [sp, #4]
100020aa:	b12b      	cbz	r3, 100020b8 <vPortLockInternalSpinUnlockWithNotify+0x68>
100020ac:	f04f 23e0 	mov.w	r3, #3758153728	@ 0xe000e000
100020b0:	f04f 5280 	mov.w	r2, #268435456	@ 0x10000000
100020b4:	f8c3 2d04 	str.w	r2, [r3, #3332]	@ 0xd04
100020b8:	b002      	add	sp, #8
100020ba:	bd10      	pop	{r4, pc}
100020bc:	bf40      	sev
100020be:	2300      	movs	r3, #0
100020c0:	6802      	ldr	r2, [r0, #0]
100020c2:	e8c2 3f8f 	stlb	r3, [r2]
100020c6:	f381 8810 	msr	PRIMASK, r1
100020ca:	b002      	add	sp, #8
100020cc:	bd10      	pop	{r4, pc}
100020ce:	bf00      	nop
100020d0:	20000675 	.word	0x20000675
100020d4:	20000850 	.word	0x20000850
100020d8:	aaaaaaab 	.word	0xaaaaaaab
100020dc:	20020c10 	.word	0x20020c10

100020e0 <xPortLockInternalSpinUnlockWithBestEffortWaitOrTimeout>:
100020e0:	e92d 41f0 	stmdb	sp!, {r4, r5, r6, r7, r8, lr}
100020e4:	4c36      	ldr	r4, [pc, #216]	@ (100021c0 <xPortLockInternalSpinUnlockWithBestEffortWaitOrTimeout+0xe0>)
100020e6:	4606      	mov	r6, r0
100020e8:	f894 c000 	ldrb.w	ip, [r4]
100020ec:	460f      	mov	r7, r1
100020ee:	f1bc 0fff 	cmp.w	ip, #255	@ 0xff
100020f2:	4614      	mov	r4, r2
100020f4:	461d      	mov	r5, r3
100020f6:	b082      	sub	sp, #8
100020f8:	d050      	beq.n	1000219c <xPortLockInternalSpinUnlockWithBestEffortWaitOrTimeout+0xbc>
100020fa:	f7fe ffc7 	bl	1000108c <time_us_64>
100020fe:	f240 33e7 	movw	r3, #999	@ 0x3e7
10002102:	ebb4 0c00 	subs.w	ip, r4, r0
10002106:	eb65 0101 	sbc.w	r1, r5, r1
1000210a:	eb1c 0003 	adds.w	r0, ip, r3
1000210e:	f141 0100 	adc.w	r1, r1, #0
10002112:	f5b0 7f7a 	cmp.w	r0, #1000	@ 0x3e8
10002116:	f171 0300 	sbcs.w	r3, r1, #0
1000211a:	f8d6 8000 	ldr.w	r8, [r6]
1000211e:	da1d      	bge.n	1000215c <xPortLockInternalSpinUnlockWithBestEffortWaitOrTimeout+0x7c>
10002120:	2300      	movs	r3, #0
10002122:	e8c8 3f8f 	stlb	r3, [r8]
10002126:	f387 8810 	msr	PRIMASK, r7
1000212a:	4b26      	ldr	r3, [pc, #152]	@ (100021c4 <xPortLockInternalSpinUnlockWithBestEffortWaitOrTimeout+0xe4>)
1000212c:	6a5a      	ldr	r2, [r3, #36]	@ 0x24
1000212e:	4295      	cmp	r5, r2
10002130:	d90d      	bls.n	1000214e <xPortLockInternalSpinUnlockWithBestEffortWaitOrTimeout+0x6e>
10002132:	f04f 23e0 	mov.w	r3, #3758153728	@ 0xe000e000
10002136:	f04f 5280 	mov.w	r2, #268435456	@ 0x10000000
1000213a:	f8c3 2d04 	str.w	r2, [r3, #3332]	@ 0xd04
1000213e:	f3bf 8f4f 	dsb	sy
10002142:	f3bf 8f6f 	isb	sy
10002146:	2000      	movs	r0, #0
10002148:	b002      	add	sp, #8
1000214a:	e8bd 81f0 	ldmia.w	sp!, {r4, r5, r6, r7, r8, pc}
1000214e:	6a9b      	ldr	r3, [r3, #40]	@ 0x28
10002150:	42a3      	cmp	r3, r4
10002152:	d330      	bcc.n	100021b6 <xPortLockInternalSpinUnlockWithBestEffortWaitOrTimeout+0xd6>
10002154:	2001      	movs	r0, #1
10002156:	b002      	add	sp, #8
10002158:	e8bd 81f0 	ldmia.w	sp!, {r4, r5, r6, r7, r8, pc}
1000215c:	f44f 727a 	mov.w	r2, #1000	@ 0x3e8
10002160:	2300      	movs	r3, #0
10002162:	f002 fe51 	bl	10004e08 <____aeabi_ldivmod_veneer>
10002166:	2800      	cmp	r0, #0
10002168:	d0da      	beq.n	10002120 <xPortLockInternalSpinUnlockWithBestEffortWaitOrTimeout+0x40>
1000216a:	2300      	movs	r3, #0
1000216c:	e8c8 3f8f 	stlb	r3, [r8]
10002170:	f387 8810 	msr	PRIMASK, r7
10002174:	2201      	movs	r2, #1
10002176:	9000      	str	r0, [sp, #0]
10002178:	6831      	ldr	r1, [r6, #0]
1000217a:	4813      	ldr	r0, [pc, #76]	@ (100021c8 <xPortLockInternalSpinUnlockWithBestEffortWaitOrTimeout+0xe8>)
1000217c:	1a09      	subs	r1, r1, r0
1000217e:	4813      	ldr	r0, [pc, #76]	@ (100021cc <xPortLockInternalSpinUnlockWithBestEffortWaitOrTimeout+0xec>)
10002180:	fba0 6001 	umull	r6, r0, r0, r1
10002184:	0900      	lsrs	r0, r0, #4
10002186:	eb00 0040 	add.w	r0, r0, r0, lsl #1
1000218a:	eba1 01c0 	sub.w	r1, r1, r0, lsl #3
1000218e:	4810      	ldr	r0, [pc, #64]	@ (100021d0 <xPortLockInternalSpinUnlockWithBestEffortWaitOrTimeout+0xf0>)
10002190:	fa02 f101 	lsl.w	r1, r2, r1
10002194:	6800      	ldr	r0, [r0, #0]
10002196:	f000 f903 	bl	100023a0 <xEventGroupWaitBits>
1000219a:	e7c6      	b.n	1000212a <xPortLockInternalSpinUnlockWithBestEffortWaitOrTimeout+0x4a>
1000219c:	2300      	movs	r3, #0
1000219e:	6802      	ldr	r2, [r0, #0]
100021a0:	e8c2 3f8f 	stlb	r3, [r2]
100021a4:	f381 8810 	msr	PRIMASK, r1
100021a8:	4620      	mov	r0, r4
100021aa:	4629      	mov	r1, r5
100021ac:	b002      	add	sp, #8
100021ae:	e8bd 41f0 	ldmia.w	sp!, {r4, r5, r6, r7, r8, lr}
100021b2:	f7fe bee7 	b.w	10000f84 <best_effort_wfe_or_timeout>
100021b6:	4295      	cmp	r5, r2
100021b8:	d0bb      	beq.n	10002132 <xPortLockInternalSpinUnlockWithBestEffortWaitOrTimeout+0x52>
100021ba:	2001      	movs	r0, #1
100021bc:	e7cb      	b.n	10002156 <xPortLockInternalSpinUnlockWithBestEffortWaitOrTimeout+0x76>
100021be:	bf00      	nop
100021c0:	20000675 	.word	0x20000675
100021c4:	400b0000 	.word	0x400b0000
100021c8:	20000850 	.word	0x20000850
100021cc:	aaaaaaab 	.word	0xaaaaaaab
100021d0:	20020c10 	.word	0x20020c10

100021d4 <prvRuntimeInitializer>:
100021d4:	b508      	push	{r3, lr}
100021d6:	f000 f8d5 	bl	10002384 <xEventGroupCreate>
100021da:	4b01      	ldr	r3, [pc, #4]	@ (100021e0 <prvRuntimeInitializer+0xc>)
100021dc:	6018      	str	r0, [r3, #0]
100021de:	bd08      	pop	{r3, pc}
100021e0:	20020c10 	.word	0x20020c10

100021e4 <vYieldCore>:
100021e4:	2301      	movs	r3, #1
100021e6:	f04f 4250 	mov.w	r2, #3489660928	@ 0xd0000000
100021ea:	4903      	ldr	r1, [pc, #12]	@ (100021f8 <vYieldCore+0x14>)
100021ec:	f991 1000 	ldrsb.w	r1, [r1]
100021f0:	408b      	lsls	r3, r1
100021f2:	f8c2 3180 	str.w	r3, [r2, #384]	@ 0x180
100021f6:	4770      	bx	lr
100021f8:	20000674 	.word	0x20000674
100021fc:	00000000 	.word	0x00000000

10002200 <vRestoreContextOfFirstTask>:
10002200:	a10b      	add	r1, pc, #44	@ (adr r1, 10002230 <ulAsmLocals>)
10002202:	c90c      	ldmia	r1!, {r2, r3}
10002204:	6812      	ldr	r2, [r2, #0]
10002206:	f853 1022 	ldr.w	r1, [r3, r2, lsl #2]
1000220a:	6808      	ldr	r0, [r1, #0]
1000220c:	c806      	ldmia	r0!, {r1, r2}
1000220e:	f381 880b 	msr	PSPLIM, r1
10002212:	2102      	movs	r1, #2
10002214:	f381 8814 	msr	CONTROL, r1
10002218:	3020      	adds	r0, #32
1000221a:	f380 8809 	msr	PSP, r0
1000221e:	f3bf 8f6f 	isb	sy
10002222:	f04f 0000 	mov.w	r0, #0
10002226:	f380 8811 	msr	BASEPRI, r0
1000222a:	4710      	bx	r2
1000222c:	f3af 8000 	nop.w

10002230 <ulAsmLocals>:
10002230:	d0000000 	.word	0xd0000000
10002234:	200008f0 	.word	0x200008f0

10002238 <vStartFirstTask>:
10002238:	b662      	cpsie	i
1000223a:	b661      	cpsie	f
1000223c:	f3bf 8f4f 	dsb	sy
10002240:	f3bf 8f6f 	isb	sy
10002244:	df66      	svc	102	@ 0x66
10002246:	bf00      	nop

10002248 <ulSetInterruptMask>:
10002248:	f3ef 8011 	mrs	r0, BASEPRI
1000224c:	f04f 0110 	mov.w	r1, #16
10002250:	f381 8811 	msr	BASEPRI, r1
10002254:	f3bf 8f4f 	dsb	sy
10002258:	f3bf 8f6f 	isb	sy
1000225c:	4770      	bx	lr
1000225e:	bf00      	nop

10002260 <vClearInterruptMask>:
10002260:	f380 8811 	msr	BASEPRI, r0
10002264:	f3bf 8f4f 	dsb	sy
10002268:	f3bf 8f6f 	isb	sy
1000226c:	4770      	bx	lr
1000226e:	bf00      	nop

10002270 <PendSV_Handler>:
10002270:	f3ef 8109 	mrs	r1, PSP
10002274:	f01e 0f10 	tst.w	lr, #16
10002278:	bf08      	it	eq
1000227a:	ed21 8a10 	vstmdbeq	r1!, {s16-s31}
1000227e:	f3ef 820b 	mrs	r2, PSPLIM
10002282:	4673      	mov	r3, lr
10002284:	e921 0ffc 	stmdb	r1!, {r2, r3, r4, r5, r6, r7, r8, r9, sl, fp}
10002288:	fc55 4408 	dcp_pxmd r4, r5
1000228c:	fc57 6409 	dcp_pymd r6, r7
10002290:	fc59 840a 	dcp_pefd r8, r9
10002294:	e901 03f0 	stmdb	r1, {r4, r5, r6, r7, r8, r9}
10002298:	a019      	add	r0, pc, #100	@ (adr r0, 10002300 <ulAsmLocals2>)
1000229a:	c80c      	ldmia	r0!, {r2, r3}
1000229c:	6810      	ldr	r0, [r2, #0]
1000229e:	f853 3020 	ldr.w	r3, [r3, r0, lsl #2]
100022a2:	6019      	str	r1, [r3, #0]
100022a4:	f04f 0110 	mov.w	r1, #16
100022a8:	f381 8811 	msr	BASEPRI, r1
100022ac:	f3bf 8f4f 	dsb	sy
100022b0:	f3bf 8f6f 	isb	sy
100022b4:	f001 fa7c 	bl	100037b0 <vTaskSwitchContext>
100022b8:	f04f 0000 	mov.w	r0, #0
100022bc:	f380 8811 	msr	BASEPRI, r0
100022c0:	a10f      	add	r1, pc, #60	@ (adr r1, 10002300 <ulAsmLocals2>)
100022c2:	c90c      	ldmia	r1!, {r2, r3}
100022c4:	6812      	ldr	r2, [r2, #0]
100022c6:	f853 1022 	ldr.w	r1, [r3, r2, lsl #2]
100022ca:	6808      	ldr	r0, [r1, #0]
100022cc:	3818      	subs	r0, #24
100022ce:	e8b0 03f0 	ldmia.w	r0!, {r4, r5, r6, r7, r8, r9}
100022d2:	ec45 4400 	dcp_wxmd r4, r5
100022d6:	ec47 6401 	dcp_wymd r6, r7
100022da:	ec49 8402 	dcp_wefd r8, r9
100022de:	e8b0 0ffc 	ldmia.w	r0!, {r2, r3, r4, r5, r6, r7, r8, r9, sl, fp}
100022e2:	f013 0f10 	tst.w	r3, #16
100022e6:	bf08      	it	eq
100022e8:	ecb0 8a10 	vldmiaeq	r0!, {s16-s31}
100022ec:	f382 880b 	msr	PSPLIM, r2
100022f0:	f380 8809 	msr	PSP, r0
100022f4:	4718      	bx	r3
100022f6:	bf00      	nop
100022f8:	f3af 8000 	nop.w
100022fc:	f3af 8000 	nop.w

10002300 <ulAsmLocals2>:
10002300:	d0000000 	.word	0xd0000000
10002304:	200008f0 	.word	0x200008f0

10002308 <SVC_Handler>:
10002308:	f01e 0f04 	tst.w	lr, #4
1000230c:	bf0c      	ite	eq
1000230e:	f3ef 8008 	mrseq	r0, MSP
10002312:	f3ef 8009 	mrsne	r0, PSP
10002316:	4901      	ldr	r1, [pc, #4]	@ (1000231c <SVC_Handler+0x14>)
10002318:	4708      	bx	r1
1000231a:	0000      	.short	0x0000
1000231c:	10001eb9 	.word	0x10001eb9

10002320 <vEventGroupSetBitsCallback>:
10002320:	e92d 43f8 	stmdb	sp!, {r3, r4, r5, r6, r7, r8, r9, lr}
10002324:	4607      	mov	r7, r0
10002326:	460d      	mov	r5, r1
10002328:	f100 090c 	add.w	r9, r0, #12
1000232c:	f001 f912 	bl	10003554 <vTaskSuspendAll>
10002330:	683b      	ldr	r3, [r7, #0]
10002332:	693c      	ldr	r4, [r7, #16]
10002334:	432b      	orrs	r3, r5
10002336:	45a1      	cmp	r9, r4
10002338:	603b      	str	r3, [r7, #0]
1000233a:	d01e      	beq.n	1000237a <vEventGroupSetBitsCallback+0x5a>
1000233c:	f04f 0800 	mov.w	r8, #0
10002340:	e009      	b.n	10002356 <vEventGroupSetBitsCallback+0x36>
10002342:	b136      	cbz	r6, 10002352 <vEventGroupSetBitsCallback+0x32>
10002344:	01d3      	lsls	r3, r2, #7
10002346:	bf48      	it	mi
10002348:	ea48 0805 	orrmi.w	r8, r8, r5
1000234c:	f001 ffd6 	bl	100042fc <vTaskRemoveFromUnorderedEventList>
10002350:	683b      	ldr	r3, [r7, #0]
10002352:	45a1      	cmp	r9, r4
10002354:	d00f      	beq.n	10002376 <vEventGroupSetBitsCallback+0x56>
10002356:	4620      	mov	r0, r4
10002358:	6802      	ldr	r2, [r0, #0]
1000235a:	6864      	ldr	r4, [r4, #4]
1000235c:	f022 457f 	bic.w	r5, r2, #4278190080	@ 0xff000000
10002360:	f012 6f80 	tst.w	r2, #67108864	@ 0x4000000
10002364:	f043 7100 	orr.w	r1, r3, #33554432	@ 0x2000000
10002368:	ea05 0603 	and.w	r6, r5, r3
1000236c:	d0e9      	beq.n	10002342 <vEventGroupSetBitsCallback+0x22>
1000236e:	42b5      	cmp	r5, r6
10002370:	d0e8      	beq.n	10002344 <vEventGroupSetBitsCallback+0x24>
10002372:	45a1      	cmp	r9, r4
10002374:	d1ef      	bne.n	10002356 <vEventGroupSetBitsCallback+0x36>
10002376:	ea23 0308 	bic.w	r3, r3, r8
1000237a:	603b      	str	r3, [r7, #0]
1000237c:	e8bd 43f8 	ldmia.w	sp!, {r3, r4, r5, r6, r7, r8, r9, lr}
10002380:	f001 bfb4 	b.w	100042ec <xTaskResumeAll>

10002384 <xEventGroupCreate>:
10002384:	b510      	push	{r4, lr}
10002386:	201c      	movs	r0, #28
10002388:	f002 fb6a 	bl	10004a60 <pvPortMalloc>
1000238c:	4604      	mov	r4, r0
1000238e:	b120      	cbz	r0, 1000239a <xEventGroupCreate+0x16>
10002390:	2300      	movs	r3, #0
10002392:	f840 3b04 	str.w	r3, [r0], #4
10002396:	f000 f89d 	bl	100024d4 <vListInitialise>
1000239a:	4620      	mov	r0, r4
1000239c:	bd10      	pop	{r4, pc}
1000239e:	bf00      	nop

100023a0 <xEventGroupWaitBits>:
100023a0:	e92d 41f0 	stmdb	sp!, {r4, r5, r6, r7, r8, lr}
100023a4:	4680      	mov	r8, r0
100023a6:	460d      	mov	r5, r1
100023a8:	461e      	mov	r6, r3
100023aa:	4617      	mov	r7, r2
100023ac:	f001 f8d2 	bl	10003554 <vTaskSuspendAll>
100023b0:	f8d8 4000 	ldr.w	r4, [r8]
100023b4:	ea04 0305 	and.w	r3, r4, r5
100023b8:	b956      	cbnz	r6, 100023d0 <xEventGroupWaitBits+0x30>
100023ba:	b333      	cbz	r3, 1000240a <xEventGroupWaitBits+0x6a>
100023bc:	b33f      	cbz	r7, 1000240e <xEventGroupWaitBits+0x6e>
100023be:	ea24 0505 	bic.w	r5, r4, r5
100023c2:	f8c8 5000 	str.w	r5, [r8]
100023c6:	f001 ff91 	bl	100042ec <xTaskResumeAll>
100023ca:	4620      	mov	r0, r4
100023cc:	e8bd 81f0 	ldmia.w	sp!, {r4, r5, r6, r7, r8, pc}
100023d0:	429d      	cmp	r5, r3
100023d2:	d0f3      	beq.n	100023bc <xEventGroupWaitBits+0x1c>
100023d4:	9b06      	ldr	r3, [sp, #24]
100023d6:	b1d3      	cbz	r3, 1000240e <xEventGroupWaitBits+0x6e>
100023d8:	1e39      	subs	r1, r7, #0
100023da:	bf18      	it	ne
100023dc:	2101      	movne	r1, #1
100023de:	461a      	mov	r2, r3
100023e0:	0609      	lsls	r1, r1, #24
100023e2:	f041 6180 	orr.w	r1, r1, #67108864	@ 0x4000000
100023e6:	4329      	orrs	r1, r5
100023e8:	f108 0004 	add.w	r0, r8, #4
100023ec:	f001 fb84 	bl	10003af8 <vTaskPlaceOnUnorderedEventList>
100023f0:	f001 ff7c 	bl	100042ec <xTaskResumeAll>
100023f4:	b330      	cbz	r0, 10002444 <xEventGroupWaitBits+0xa4>
100023f6:	f002 f8e5 	bl	100045c4 <uxTaskResetEventItemValue>
100023fa:	0183      	lsls	r3, r0, #6
100023fc:	4604      	mov	r4, r0
100023fe:	d511      	bpl.n	10002424 <xEventGroupWaitBits+0x84>
10002400:	f024 447f 	bic.w	r4, r4, #4278190080	@ 0xff000000
10002404:	4620      	mov	r0, r4
10002406:	e8bd 81f0 	ldmia.w	sp!, {r4, r5, r6, r7, r8, pc}
1000240a:	9b06      	ldr	r3, [sp, #24]
1000240c:	b923      	cbnz	r3, 10002418 <xEventGroupWaitBits+0x78>
1000240e:	f001 ff6d 	bl	100042ec <xTaskResumeAll>
10002412:	4620      	mov	r0, r4
10002414:	e8bd 81f0 	ldmia.w	sp!, {r4, r5, r6, r7, r8, pc}
10002418:	1e39      	subs	r1, r7, #0
1000241a:	bf18      	it	ne
1000241c:	2101      	movne	r1, #1
1000241e:	461a      	mov	r2, r3
10002420:	0609      	lsls	r1, r1, #24
10002422:	e7e0      	b.n	100023e6 <xEventGroupWaitBits+0x46>
10002424:	f001 fcfc 	bl	10003e20 <vTaskEnterCritical>
10002428:	f8d8 4000 	ldr.w	r4, [r8]
1000242c:	ea05 0304 	and.w	r3, r5, r4
10002430:	b95e      	cbnz	r6, 1000244a <xEventGroupWaitBits+0xaa>
10002432:	b123      	cbz	r3, 1000243e <xEventGroupWaitBits+0x9e>
10002434:	b11f      	cbz	r7, 1000243e <xEventGroupWaitBits+0x9e>
10002436:	ea24 0505 	bic.w	r5, r4, r5
1000243a:	f8c8 5000 	str.w	r5, [r8]
1000243e:	f002 f843 	bl	100044c8 <vTaskExitCritical>
10002442:	e7dd      	b.n	10002400 <xEventGroupWaitBits+0x60>
10002444:	f001 fcda 	bl	10003dfc <vTaskYieldWithinAPI>
10002448:	e7d5      	b.n	100023f6 <xEventGroupWaitBits+0x56>
1000244a:	42ab      	cmp	r3, r5
1000244c:	d1f7      	bne.n	1000243e <xEventGroupWaitBits+0x9e>
1000244e:	e7f1      	b.n	10002434 <xEventGroupWaitBits+0x94>

10002450 <xEventGroupSetBits>:
10002450:	e92d 43f8 	stmdb	sp!, {r3, r4, r5, r6, r7, r8, r9, lr}
10002454:	4607      	mov	r7, r0
10002456:	460d      	mov	r5, r1
10002458:	f100 090c 	add.w	r9, r0, #12
1000245c:	f001 f87a 	bl	10003554 <vTaskSuspendAll>
10002460:	683b      	ldr	r3, [r7, #0]
10002462:	693c      	ldr	r4, [r7, #16]
10002464:	432b      	orrs	r3, r5
10002466:	45a1      	cmp	r9, r4
10002468:	603b      	str	r3, [r7, #0]
1000246a:	d01e      	beq.n	100024aa <xEventGroupSetBits+0x5a>
1000246c:	f04f 0800 	mov.w	r8, #0
10002470:	e009      	b.n	10002486 <xEventGroupSetBits+0x36>
10002472:	b136      	cbz	r6, 10002482 <xEventGroupSetBits+0x32>
10002474:	01d3      	lsls	r3, r2, #7
10002476:	bf48      	it	mi
10002478:	ea48 0805 	orrmi.w	r8, r8, r5
1000247c:	f001 ff3e 	bl	100042fc <vTaskRemoveFromUnorderedEventList>
10002480:	683b      	ldr	r3, [r7, #0]
10002482:	45a1      	cmp	r9, r4
10002484:	d00f      	beq.n	100024a6 <xEventGroupSetBits+0x56>
10002486:	4620      	mov	r0, r4
10002488:	6802      	ldr	r2, [r0, #0]
1000248a:	6864      	ldr	r4, [r4, #4]
1000248c:	f022 457f 	bic.w	r5, r2, #4278190080	@ 0xff000000
10002490:	f012 6f80 	tst.w	r2, #67108864	@ 0x4000000
10002494:	f043 7100 	orr.w	r1, r3, #33554432	@ 0x2000000
10002498:	ea05 0603 	and.w	r6, r5, r3
1000249c:	d0e9      	beq.n	10002472 <xEventGroupSetBits+0x22>
1000249e:	42b5      	cmp	r5, r6
100024a0:	d0e8      	beq.n	10002474 <xEventGroupSetBits+0x24>
100024a2:	45a1      	cmp	r9, r4
100024a4:	d1ef      	bne.n	10002486 <xEventGroupSetBits+0x36>
100024a6:	ea23 0308 	bic.w	r3, r3, r8
100024aa:	603b      	str	r3, [r7, #0]
100024ac:	f001 ff1e 	bl	100042ec <xTaskResumeAll>
100024b0:	6838      	ldr	r0, [r7, #0]
100024b2:	e8bd 83f8 	ldmia.w	sp!, {r3, r4, r5, r6, r7, r8, r9, pc}
100024b6:	bf00      	nop

100024b8 <xEventGroupSetBitsFromISR>:
100024b8:	468c      	mov	ip, r1
100024ba:	b500      	push	{lr}
100024bc:	4686      	mov	lr, r0
100024be:	4613      	mov	r3, r2
100024c0:	4671      	mov	r1, lr
100024c2:	4662      	mov	r2, ip
100024c4:	4802      	ldr	r0, [pc, #8]	@ (100024d0 <xEventGroupSetBitsFromISR+0x18>)
100024c6:	f85d eb04 	ldr.w	lr, [sp], #4
100024ca:	f002 ba8b 	b.w	100049e4 <xTimerPendFunctionCallFromISR>
100024ce:	bf00      	nop
100024d0:	10002321 	.word	0x10002321

100024d4 <vListInitialise>:
100024d4:	f04f 31ff 	mov.w	r1, #4294967295
100024d8:	2200      	movs	r2, #0
100024da:	f100 0308 	add.w	r3, r0, #8
100024de:	e9c0 3101 	strd	r3, r1, [r0, #4]
100024e2:	e9c0 3303 	strd	r3, r3, [r0, #12]
100024e6:	6002      	str	r2, [r0, #0]
100024e8:	4770      	bx	lr
100024ea:	bf00      	nop

100024ec <vListInitialiseItem>:
100024ec:	2300      	movs	r3, #0
100024ee:	6103      	str	r3, [r0, #16]
100024f0:	4770      	bx	lr
100024f2:	bf00      	nop

100024f4 <vListInsertEnd>:
100024f4:	b410      	push	{r4}
100024f6:	e9d0 3200 	ldrd	r3, r2, [r0]
100024fa:	6894      	ldr	r4, [r2, #8]
100024fc:	3301      	adds	r3, #1
100024fe:	e9c1 2401 	strd	r2, r4, [r1, #4]
10002502:	6061      	str	r1, [r4, #4]
10002504:	6091      	str	r1, [r2, #8]
10002506:	f85d 4b04 	ldr.w	r4, [sp], #4
1000250a:	6108      	str	r0, [r1, #16]
1000250c:	6003      	str	r3, [r0, #0]
1000250e:	4770      	bx	lr

10002510 <vListInsert>:
10002510:	b430      	push	{r4, r5}
10002512:	680d      	ldr	r5, [r1, #0]
10002514:	1c6b      	adds	r3, r5, #1
10002516:	d010      	beq.n	1000253a <vListInsert+0x2a>
10002518:	f100 0308 	add.w	r3, r0, #8
1000251c:	461c      	mov	r4, r3
1000251e:	685b      	ldr	r3, [r3, #4]
10002520:	681a      	ldr	r2, [r3, #0]
10002522:	42aa      	cmp	r2, r5
10002524:	d9fa      	bls.n	1000251c <vListInsert+0xc>
10002526:	6802      	ldr	r2, [r0, #0]
10002528:	604b      	str	r3, [r1, #4]
1000252a:	3201      	adds	r2, #1
1000252c:	6099      	str	r1, [r3, #8]
1000252e:	608c      	str	r4, [r1, #8]
10002530:	6061      	str	r1, [r4, #4]
10002532:	6108      	str	r0, [r1, #16]
10002534:	bc30      	pop	{r4, r5}
10002536:	6002      	str	r2, [r0, #0]
10002538:	4770      	bx	lr
1000253a:	6904      	ldr	r4, [r0, #16]
1000253c:	6863      	ldr	r3, [r4, #4]
1000253e:	e7f2      	b.n	10002526 <vListInsert+0x16>

10002540 <uxListRemove>:
10002540:	4603      	mov	r3, r0
10002542:	6902      	ldr	r2, [r0, #16]
10002544:	b410      	push	{r4}
10002546:	6854      	ldr	r4, [r2, #4]
10002548:	6840      	ldr	r0, [r0, #4]
1000254a:	6899      	ldr	r1, [r3, #8]
1000254c:	429c      	cmp	r4, r3
1000254e:	6081      	str	r1, [r0, #8]
10002550:	6048      	str	r0, [r1, #4]
10002552:	bf08      	it	eq
10002554:	6051      	streq	r1, [r2, #4]
10002556:	2100      	movs	r1, #0
10002558:	6810      	ldr	r0, [r2, #0]
1000255a:	f85d 4b04 	ldr.w	r4, [sp], #4
1000255e:	3801      	subs	r0, #1
10002560:	6119      	str	r1, [r3, #16]
10002562:	6010      	str	r0, [r2, #0]
10002564:	4770      	bx	lr
10002566:	bf00      	nop

10002568 <prvCopyDataToQueue>:
10002568:	b570      	push	{r4, r5, r6, lr}
1000256a:	4616      	mov	r6, r2
1000256c:	6c02      	ldr	r2, [r0, #64]	@ 0x40
1000256e:	4604      	mov	r4, r0
10002570:	6b85      	ldr	r5, [r0, #56]	@ 0x38
10002572:	b92a      	cbnz	r2, 10002580 <prvCopyDataToQueue+0x18>
10002574:	6806      	ldr	r6, [r0, #0]
10002576:	3501      	adds	r5, #1
10002578:	b34e      	cbz	r6, 100025ce <prvCopyDataToQueue+0x66>
1000257a:	4610      	mov	r0, r2
1000257c:	63a5      	str	r5, [r4, #56]	@ 0x38
1000257e:	bd70      	pop	{r4, r5, r6, pc}
10002580:	b98e      	cbnz	r6, 100025a6 <prvCopyDataToQueue+0x3e>
10002582:	6840      	ldr	r0, [r0, #4]
10002584:	f002 fb96 	bl	10004cb4 <memcpy>
10002588:	6863      	ldr	r3, [r4, #4]
1000258a:	6c21      	ldr	r1, [r4, #64]	@ 0x40
1000258c:	68a2      	ldr	r2, [r4, #8]
1000258e:	440b      	add	r3, r1
10002590:	4293      	cmp	r3, r2
10002592:	6063      	str	r3, [r4, #4]
10002594:	bf28      	it	cs
10002596:	6823      	ldrcs	r3, [r4, #0]
10002598:	f105 0501 	add.w	r5, r5, #1
1000259c:	bf28      	it	cs
1000259e:	6063      	strcs	r3, [r4, #4]
100025a0:	2000      	movs	r0, #0
100025a2:	63a5      	str	r5, [r4, #56]	@ 0x38
100025a4:	bd70      	pop	{r4, r5, r6, pc}
100025a6:	68c0      	ldr	r0, [r0, #12]
100025a8:	f002 fb84 	bl	10004cb4 <memcpy>
100025ac:	6c22      	ldr	r2, [r4, #64]	@ 0x40
100025ae:	68e3      	ldr	r3, [r4, #12]
100025b0:	4251      	negs	r1, r2
100025b2:	1a9b      	subs	r3, r3, r2
100025b4:	6822      	ldr	r2, [r4, #0]
100025b6:	60e3      	str	r3, [r4, #12]
100025b8:	4293      	cmp	r3, r2
100025ba:	d202      	bcs.n	100025c2 <prvCopyDataToQueue+0x5a>
100025bc:	68a3      	ldr	r3, [r4, #8]
100025be:	440b      	add	r3, r1
100025c0:	60e3      	str	r3, [r4, #12]
100025c2:	2e02      	cmp	r6, #2
100025c4:	d008      	beq.n	100025d8 <prvCopyDataToQueue+0x70>
100025c6:	3501      	adds	r5, #1
100025c8:	2000      	movs	r0, #0
100025ca:	63a5      	str	r5, [r4, #56]	@ 0x38
100025cc:	bd70      	pop	{r4, r5, r6, pc}
100025ce:	6880      	ldr	r0, [r0, #8]
100025d0:	f001 fbb6 	bl	10003d40 <xTaskPriorityDisinherit>
100025d4:	60a6      	str	r6, [r4, #8]
100025d6:	e7d1      	b.n	1000257c <prvCopyDataToQueue+0x14>
100025d8:	2d01      	cmp	r5, #1
100025da:	bf38      	it	cc
100025dc:	2501      	movcc	r5, #1
100025de:	e7df      	b.n	100025a0 <prvCopyDataToQueue+0x38>

100025e0 <prvUnlockQueue>:
100025e0:	e92d 43f0 	stmdb	sp!, {r4, r5, r6, r7, r8, r9, lr}
100025e4:	4606      	mov	r6, r0
100025e6:	b085      	sub	sp, #20
100025e8:	f001 fc1a 	bl	10003e20 <vTaskEnterCritical>
100025ec:	f896 3045 	ldrb.w	r3, [r6, #69]	@ 0x45
100025f0:	b25d      	sxtb	r5, r3
100025f2:	2d00      	cmp	r5, #0
100025f4:	dd1c      	ble.n	10002630 <prvUnlockQueue+0x50>
100025f6:	f106 0724 	add.w	r7, r6, #36	@ 0x24
100025fa:	e008      	b.n	1000260e <prvUnlockQueue+0x2e>
100025fc:	6ba2      	ldr	r2, [r4, #56]	@ 0x38
100025fe:	6be3      	ldr	r3, [r4, #60]	@ 0x3c
10002600:	9603      	str	r6, [sp, #12]
10002602:	429a      	cmp	r2, r3
10002604:	d33d      	bcc.n	10002682 <prvUnlockQueue+0xa2>
10002606:	1e6b      	subs	r3, r5, #1
10002608:	b2da      	uxtb	r2, r3
1000260a:	b25d      	sxtb	r5, r3
1000260c:	b182      	cbz	r2, 10002630 <prvUnlockQueue+0x50>
1000260e:	6cb4      	ldr	r4, [r6, #72]	@ 0x48
10002610:	2c00      	cmp	r4, #0
10002612:	d1f3      	bne.n	100025fc <prvUnlockQueue+0x1c>
10002614:	6a73      	ldr	r3, [r6, #36]	@ 0x24
10002616:	b15b      	cbz	r3, 10002630 <prvUnlockQueue+0x50>
10002618:	4638      	mov	r0, r7
1000261a:	f001 fb0b 	bl	10003c34 <xTaskRemoveFromEventList>
1000261e:	2800      	cmp	r0, #0
10002620:	d0f1      	beq.n	10002606 <prvUnlockQueue+0x26>
10002622:	f001 fb73 	bl	10003d0c <vTaskMissedYield>
10002626:	1e6b      	subs	r3, r5, #1
10002628:	b2da      	uxtb	r2, r3
1000262a:	b25d      	sxtb	r5, r3
1000262c:	2a00      	cmp	r2, #0
1000262e:	d1ee      	bne.n	1000260e <prvUnlockQueue+0x2e>
10002630:	23ff      	movs	r3, #255	@ 0xff
10002632:	f886 3045 	strb.w	r3, [r6, #69]	@ 0x45
10002636:	f001 ff47 	bl	100044c8 <vTaskExitCritical>
1000263a:	f001 fbf1 	bl	10003e20 <vTaskEnterCritical>
1000263e:	f896 3044 	ldrb.w	r3, [r6, #68]	@ 0x44
10002642:	b25c      	sxtb	r4, r3
10002644:	2c00      	cmp	r4, #0
10002646:	dd14      	ble.n	10002672 <prvUnlockQueue+0x92>
10002648:	f106 0510 	add.w	r5, r6, #16
1000264c:	e003      	b.n	10002656 <prvUnlockQueue+0x76>
1000264e:	1e63      	subs	r3, r4, #1
10002650:	b2da      	uxtb	r2, r3
10002652:	b25c      	sxtb	r4, r3
10002654:	b16a      	cbz	r2, 10002672 <prvUnlockQueue+0x92>
10002656:	6933      	ldr	r3, [r6, #16]
10002658:	b15b      	cbz	r3, 10002672 <prvUnlockQueue+0x92>
1000265a:	4628      	mov	r0, r5
1000265c:	f001 faea 	bl	10003c34 <xTaskRemoveFromEventList>
10002660:	2800      	cmp	r0, #0
10002662:	d0f4      	beq.n	1000264e <prvUnlockQueue+0x6e>
10002664:	f001 fb52 	bl	10003d0c <vTaskMissedYield>
10002668:	1e63      	subs	r3, r4, #1
1000266a:	b2da      	uxtb	r2, r3
1000266c:	b25c      	sxtb	r4, r3
1000266e:	2a00      	cmp	r2, #0
10002670:	d1f1      	bne.n	10002656 <prvUnlockQueue+0x76>
10002672:	23ff      	movs	r3, #255	@ 0xff
10002674:	f886 3044 	strb.w	r3, [r6, #68]	@ 0x44
10002678:	b005      	add	sp, #20
1000267a:	e8bd 43f0 	ldmia.w	sp!, {r4, r5, r6, r7, r8, r9, lr}
1000267e:	f001 bf23 	b.w	100044c8 <vTaskExitCritical>
10002682:	f894 8045 	ldrb.w	r8, [r4, #69]	@ 0x45
10002686:	6c22      	ldr	r2, [r4, #64]	@ 0x40
10002688:	6ba3      	ldr	r3, [r4, #56]	@ 0x38
1000268a:	fa4f f888 	sxtb.w	r8, r8
1000268e:	f103 0901 	add.w	r9, r3, #1
10002692:	b99a      	cbnz	r2, 100026bc <prvUnlockQueue+0xdc>
10002694:	6823      	ldr	r3, [r4, #0]
10002696:	2b00      	cmp	r3, #0
10002698:	d03f      	beq.n	1000271a <prvUnlockQueue+0x13a>
1000269a:	f1b8 3fff 	cmp.w	r8, #4294967295
1000269e:	f8c4 9038 	str.w	r9, [r4, #56]	@ 0x38
100026a2:	d12e      	bne.n	10002702 <prvUnlockQueue+0x122>
100026a4:	6a63      	ldr	r3, [r4, #36]	@ 0x24
100026a6:	2b00      	cmp	r3, #0
100026a8:	d0ad      	beq.n	10002606 <prvUnlockQueue+0x26>
100026aa:	f104 0024 	add.w	r0, r4, #36	@ 0x24
100026ae:	f001 fac1 	bl	10003c34 <xTaskRemoveFromEventList>
100026b2:	2800      	cmp	r0, #0
100026b4:	d0a7      	beq.n	10002606 <prvUnlockQueue+0x26>
100026b6:	f001 fb29 	bl	10003d0c <vTaskMissedYield>
100026ba:	e7b4      	b.n	10002626 <prvUnlockQueue+0x46>
100026bc:	6860      	ldr	r0, [r4, #4]
100026be:	a903      	add	r1, sp, #12
100026c0:	f002 faf8 	bl	10004cb4 <memcpy>
100026c4:	6863      	ldr	r3, [r4, #4]
100026c6:	6c22      	ldr	r2, [r4, #64]	@ 0x40
100026c8:	f8c4 9038 	str.w	r9, [r4, #56]	@ 0x38
100026cc:	4413      	add	r3, r2
100026ce:	68a2      	ldr	r2, [r4, #8]
100026d0:	6063      	str	r3, [r4, #4]
100026d2:	4293      	cmp	r3, r2
100026d4:	d30e      	bcc.n	100026f4 <prvUnlockQueue+0x114>
100026d6:	6823      	ldr	r3, [r4, #0]
100026d8:	f1b8 3fff 	cmp.w	r8, #4294967295
100026dc:	6063      	str	r3, [r4, #4]
100026de:	d0e1      	beq.n	100026a4 <prvUnlockQueue+0xc4>
100026e0:	f000 ff46 	bl	10003570 <uxTaskGetNumberOfTasks>
100026e4:	4540      	cmp	r0, r8
100026e6:	d98e      	bls.n	10002606 <prvUnlockQueue+0x26>
100026e8:	f108 0301 	add.w	r3, r8, #1
100026ec:	b25b      	sxtb	r3, r3
100026ee:	f884 3045 	strb.w	r3, [r4, #69]	@ 0x45
100026f2:	e788      	b.n	10002606 <prvUnlockQueue+0x26>
100026f4:	f1b8 3fff 	cmp.w	r8, #4294967295
100026f8:	d1f2      	bne.n	100026e0 <prvUnlockQueue+0x100>
100026fa:	6a63      	ldr	r3, [r4, #36]	@ 0x24
100026fc:	2b00      	cmp	r3, #0
100026fe:	d082      	beq.n	10002606 <prvUnlockQueue+0x26>
10002700:	e7d3      	b.n	100026aa <prvUnlockQueue+0xca>
10002702:	f000 ff35 	bl	10003570 <uxTaskGetNumberOfTasks>
10002706:	4580      	cmp	r8, r0
10002708:	f4bf af7d 	bcs.w	10002606 <prvUnlockQueue+0x26>
1000270c:	f108 0801 	add.w	r8, r8, #1
10002710:	fa4f f888 	sxtb.w	r8, r8
10002714:	f884 8045 	strb.w	r8, [r4, #69]	@ 0x45
10002718:	e775      	b.n	10002606 <prvUnlockQueue+0x26>
1000271a:	68a0      	ldr	r0, [r4, #8]
1000271c:	9301      	str	r3, [sp, #4]
1000271e:	f001 fb0f 	bl	10003d40 <xTaskPriorityDisinherit>
10002722:	9b01      	ldr	r3, [sp, #4]
10002724:	f1b8 3fff 	cmp.w	r8, #4294967295
10002728:	f8c4 9038 	str.w	r9, [r4, #56]	@ 0x38
1000272c:	60a3      	str	r3, [r4, #8]
1000272e:	4681      	mov	r9, r0
10002730:	d108      	bne.n	10002744 <prvUnlockQueue+0x164>
10002732:	6a63      	ldr	r3, [r4, #36]	@ 0x24
10002734:	b99b      	cbnz	r3, 1000275e <prvUnlockQueue+0x17e>
10002736:	f1b9 0f00 	cmp.w	r9, #0
1000273a:	f43f af64 	beq.w	10002606 <prvUnlockQueue+0x26>
1000273e:	f001 fae5 	bl	10003d0c <vTaskMissedYield>
10002742:	e770      	b.n	10002626 <prvUnlockQueue+0x46>
10002744:	f000 ff14 	bl	10003570 <uxTaskGetNumberOfTasks>
10002748:	4540      	cmp	r0, r8
1000274a:	d9f4      	bls.n	10002736 <prvUnlockQueue+0x156>
1000274c:	f108 0301 	add.w	r3, r8, #1
10002750:	b25b      	sxtb	r3, r3
10002752:	f884 3045 	strb.w	r3, [r4, #69]	@ 0x45
10002756:	f1b9 0f00 	cmp.w	r9, #0
1000275a:	d1f0      	bne.n	1000273e <prvUnlockQueue+0x15e>
1000275c:	e753      	b.n	10002606 <prvUnlockQueue+0x26>
1000275e:	f104 0024 	add.w	r0, r4, #36	@ 0x24
10002762:	f001 fa67 	bl	10003c34 <xTaskRemoveFromEventList>
10002766:	2800      	cmp	r0, #0
10002768:	f47f af5b 	bne.w	10002622 <prvUnlockQueue+0x42>
1000276c:	e7e3      	b.n	10002736 <prvUnlockQueue+0x156>
1000276e:	bf00      	nop

10002770 <prvNotifyQueueSetContainer>:
10002770:	b5f0      	push	{r4, r5, r6, r7, lr}
10002772:	6c84      	ldr	r4, [r0, #72]	@ 0x48
10002774:	b083      	sub	sp, #12
10002776:	6ba2      	ldr	r2, [r4, #56]	@ 0x38
10002778:	6be3      	ldr	r3, [r4, #60]	@ 0x3c
1000277a:	9001      	str	r0, [sp, #4]
1000277c:	429a      	cmp	r2, r3
1000277e:	d303      	bcc.n	10002788 <prvNotifyQueueSetContainer+0x18>
10002780:	2500      	movs	r5, #0
10002782:	4628      	mov	r0, r5
10002784:	b003      	add	sp, #12
10002786:	bdf0      	pop	{r4, r5, r6, r7, pc}
10002788:	f894 6045 	ldrb.w	r6, [r4, #69]	@ 0x45
1000278c:	6c22      	ldr	r2, [r4, #64]	@ 0x40
1000278e:	6ba7      	ldr	r7, [r4, #56]	@ 0x38
10002790:	b276      	sxtb	r6, r6
10002792:	b1e2      	cbz	r2, 100027ce <prvNotifyQueueSetContainer+0x5e>
10002794:	6860      	ldr	r0, [r4, #4]
10002796:	a901      	add	r1, sp, #4
10002798:	f002 fa8c 	bl	10004cb4 <memcpy>
1000279c:	6862      	ldr	r2, [r4, #4]
1000279e:	6c23      	ldr	r3, [r4, #64]	@ 0x40
100027a0:	441a      	add	r2, r3
100027a2:	68a3      	ldr	r3, [r4, #8]
100027a4:	6062      	str	r2, [r4, #4]
100027a6:	429a      	cmp	r2, r3
100027a8:	d301      	bcc.n	100027ae <prvNotifyQueueSetContainer+0x3e>
100027aa:	6823      	ldr	r3, [r4, #0]
100027ac:	6063      	str	r3, [r4, #4]
100027ae:	2500      	movs	r5, #0
100027b0:	3701      	adds	r7, #1
100027b2:	1c73      	adds	r3, r6, #1
100027b4:	63a7      	str	r7, [r4, #56]	@ 0x38
100027b6:	d113      	bne.n	100027e0 <prvNotifyQueueSetContainer+0x70>
100027b8:	6a63      	ldr	r3, [r4, #36]	@ 0x24
100027ba:	2b00      	cmp	r3, #0
100027bc:	d0e1      	beq.n	10002782 <prvNotifyQueueSetContainer+0x12>
100027be:	f104 0024 	add.w	r0, r4, #36	@ 0x24
100027c2:	f001 fa37 	bl	10003c34 <xTaskRemoveFromEventList>
100027c6:	2800      	cmp	r0, #0
100027c8:	bf18      	it	ne
100027ca:	2501      	movne	r5, #1
100027cc:	e7d9      	b.n	10002782 <prvNotifyQueueSetContainer+0x12>
100027ce:	6825      	ldr	r5, [r4, #0]
100027d0:	2d00      	cmp	r5, #0
100027d2:	d1ec      	bne.n	100027ae <prvNotifyQueueSetContainer+0x3e>
100027d4:	68a0      	ldr	r0, [r4, #8]
100027d6:	f001 fab3 	bl	10003d40 <xTaskPriorityDisinherit>
100027da:	60a5      	str	r5, [r4, #8]
100027dc:	4605      	mov	r5, r0
100027de:	e7e7      	b.n	100027b0 <prvNotifyQueueSetContainer+0x40>
100027e0:	f000 fec6 	bl	10003570 <uxTaskGetNumberOfTasks>
100027e4:	4286      	cmp	r6, r0
100027e6:	d2cc      	bcs.n	10002782 <prvNotifyQueueSetContainer+0x12>
100027e8:	3601      	adds	r6, #1
100027ea:	b276      	sxtb	r6, r6
100027ec:	f884 6045 	strb.w	r6, [r4, #69]	@ 0x45
100027f0:	e7c7      	b.n	10002782 <prvNotifyQueueSetContainer+0x12>
100027f2:	bf00      	nop

100027f4 <xQueueGenericCreate>:
100027f4:	b5f8      	push	{r3, r4, r5, r6, r7, lr}
100027f6:	b3c0      	cbz	r0, 1000286a <xQueueGenericCreate+0x76>
100027f8:	4617      	mov	r7, r2
100027fa:	fba1 2300 	umull	r2, r3, r1, r0
100027fe:	4605      	mov	r5, r0
10002800:	460e      	mov	r6, r1
10002802:	bb93      	cbnz	r3, 1000286a <xQueueGenericCreate+0x76>
10002804:	fb01 f000 	mul.w	r0, r1, r0
10002808:	f110 0f55 	cmn.w	r0, #85	@ 0x55
1000280c:	d82d      	bhi.n	1000286a <xQueueGenericCreate+0x76>
1000280e:	3054      	adds	r0, #84	@ 0x54
10002810:	f002 f926 	bl	10004a60 <pvPortMalloc>
10002814:	4604      	mov	r4, r0
10002816:	b340      	cbz	r0, 1000286a <xQueueGenericCreate+0x76>
10002818:	b356      	cbz	r6, 10002870 <xQueueGenericCreate+0x7c>
1000281a:	f100 0354 	add.w	r3, r0, #84	@ 0x54
1000281e:	e9c4 560f 	strd	r5, r6, [r4, #60]	@ 0x3c
10002822:	6023      	str	r3, [r4, #0]
10002824:	f001 fafc 	bl	10003e20 <vTaskEnterCritical>
10002828:	2500      	movs	r5, #0
1000282a:	23ff      	movs	r3, #255	@ 0xff
1000282c:	6c21      	ldr	r1, [r4, #64]	@ 0x40
1000282e:	63a5      	str	r5, [r4, #56]	@ 0x38
10002830:	f884 3044 	strb.w	r3, [r4, #68]	@ 0x44
10002834:	f884 3045 	strb.w	r3, [r4, #69]	@ 0x45
10002838:	6be3      	ldr	r3, [r4, #60]	@ 0x3c
1000283a:	6822      	ldr	r2, [r4, #0]
1000283c:	fb01 f303 	mul.w	r3, r1, r3
10002840:	1a59      	subs	r1, r3, r1
10002842:	6062      	str	r2, [r4, #4]
10002844:	4413      	add	r3, r2
10002846:	440a      	add	r2, r1
10002848:	e9c4 3202 	strd	r3, r2, [r4, #8]
1000284c:	f104 0010 	add.w	r0, r4, #16
10002850:	f7ff fe40 	bl	100024d4 <vListInitialise>
10002854:	f104 0024 	add.w	r0, r4, #36	@ 0x24
10002858:	f7ff fe3c 	bl	100024d4 <vListInitialise>
1000285c:	f001 fe34 	bl	100044c8 <vTaskExitCritical>
10002860:	f884 7050 	strb.w	r7, [r4, #80]	@ 0x50
10002864:	4620      	mov	r0, r4
10002866:	64a5      	str	r5, [r4, #72]	@ 0x48
10002868:	bdf8      	pop	{r3, r4, r5, r6, r7, pc}
1000286a:	2400      	movs	r4, #0
1000286c:	4620      	mov	r0, r4
1000286e:	bdf8      	pop	{r3, r4, r5, r6, r7, pc}
10002870:	4603      	mov	r3, r0
10002872:	e7d4      	b.n	1000281e <xQueueGenericCreate+0x2a>

10002874 <xQueueGenericSendFromISR>:
10002874:	e92d 43f8 	stmdb	sp!, {r3, r4, r5, r6, r7, r8, r9, lr}
10002878:	4604      	mov	r4, r0
1000287a:	4690      	mov	r8, r2
1000287c:	461d      	mov	r5, r3
1000287e:	460f      	mov	r7, r1
10002880:	f7ff fb94 	bl	10001fac <vPortValidateInterruptPriority>
10002884:	f001 fdd6 	bl	10004434 <vTaskEnterCriticalFromISR>
10002888:	6ba2      	ldr	r2, [r4, #56]	@ 0x38
1000288a:	6be3      	ldr	r3, [r4, #60]	@ 0x3c
1000288c:	4606      	mov	r6, r0
1000288e:	429a      	cmp	r2, r3
10002890:	d308      	bcc.n	100028a4 <xQueueGenericSendFromISR+0x30>
10002892:	2d02      	cmp	r5, #2
10002894:	d006      	beq.n	100028a4 <xQueueGenericSendFromISR+0x30>
10002896:	2400      	movs	r4, #0
10002898:	4630      	mov	r0, r6
1000289a:	f001 fe61 	bl	10004560 <vTaskExitCriticalFromISR>
1000289e:	4620      	mov	r0, r4
100028a0:	e8bd 83f8 	ldmia.w	sp!, {r3, r4, r5, r6, r7, r8, r9, pc}
100028a4:	4639      	mov	r1, r7
100028a6:	f894 7045 	ldrb.w	r7, [r4, #69]	@ 0x45
100028aa:	462a      	mov	r2, r5
100028ac:	4620      	mov	r0, r4
100028ae:	b27f      	sxtb	r7, r7
100028b0:	f8d4 9038 	ldr.w	r9, [r4, #56]	@ 0x38
100028b4:	f7ff fe58 	bl	10002568 <prvCopyDataToQueue>
100028b8:	1c7b      	adds	r3, r7, #1
100028ba:	d117      	bne.n	100028ec <xQueueGenericSendFromISR+0x78>
100028bc:	6ca3      	ldr	r3, [r4, #72]	@ 0x48
100028be:	b1fb      	cbz	r3, 10002900 <xQueueGenericSendFromISR+0x8c>
100028c0:	2d02      	cmp	r5, #2
100028c2:	d102      	bne.n	100028ca <xQueueGenericSendFromISR+0x56>
100028c4:	f1b9 0f00 	cmp.w	r9, #0
100028c8:	d109      	bne.n	100028de <xQueueGenericSendFromISR+0x6a>
100028ca:	4620      	mov	r0, r4
100028cc:	f7ff ff50 	bl	10002770 <prvNotifyQueueSetContainer>
100028d0:	b128      	cbz	r0, 100028de <xQueueGenericSendFromISR+0x6a>
100028d2:	f1b8 0f00 	cmp.w	r8, #0
100028d6:	d002      	beq.n	100028de <xQueueGenericSendFromISR+0x6a>
100028d8:	2301      	movs	r3, #1
100028da:	f8c8 3000 	str.w	r3, [r8]
100028de:	2401      	movs	r4, #1
100028e0:	4630      	mov	r0, r6
100028e2:	f001 fe3d 	bl	10004560 <vTaskExitCriticalFromISR>
100028e6:	4620      	mov	r0, r4
100028e8:	e8bd 83f8 	ldmia.w	sp!, {r3, r4, r5, r6, r7, r8, r9, pc}
100028ec:	f000 fe40 	bl	10003570 <uxTaskGetNumberOfTasks>
100028f0:	4287      	cmp	r7, r0
100028f2:	d2f4      	bcs.n	100028de <xQueueGenericSendFromISR+0x6a>
100028f4:	3701      	adds	r7, #1
100028f6:	b27f      	sxtb	r7, r7
100028f8:	f884 7045 	strb.w	r7, [r4, #69]	@ 0x45
100028fc:	2401      	movs	r4, #1
100028fe:	e7ef      	b.n	100028e0 <xQueueGenericSendFromISR+0x6c>
10002900:	6a63      	ldr	r3, [r4, #36]	@ 0x24
10002902:	2b00      	cmp	r3, #0
10002904:	d0eb      	beq.n	100028de <xQueueGenericSendFromISR+0x6a>
10002906:	f104 0024 	add.w	r0, r4, #36	@ 0x24
1000290a:	f001 f993 	bl	10003c34 <xTaskRemoveFromEventList>
1000290e:	2800      	cmp	r0, #0
10002910:	d1df      	bne.n	100028d2 <xQueueGenericSendFromISR+0x5e>
10002912:	e7e4      	b.n	100028de <xQueueGenericSendFromISR+0x6a>

10002914 <xQueueReceive>:
10002914:	b5f0      	push	{r4, r5, r6, r7, lr}
10002916:	4604      	mov	r4, r0
10002918:	b085      	sub	sp, #20
1000291a:	460f      	mov	r7, r1
1000291c:	9201      	str	r2, [sp, #4]
1000291e:	f001 fa7f 	bl	10003e20 <vTaskEnterCritical>
10002922:	6ba5      	ldr	r5, [r4, #56]	@ 0x38
10002924:	2d00      	cmp	r5, #0
10002926:	d153      	bne.n	100029d0 <xQueueReceive+0xbc>
10002928:	9b01      	ldr	r3, [sp, #4]
1000292a:	b3a3      	cbz	r3, 10002996 <xQueueReceive+0x82>
1000292c:	a802      	add	r0, sp, #8
1000292e:	f001 f9e1 	bl	10003cf4 <vTaskInternalSetTimeOutState>
10002932:	462e      	mov	r6, r5
10002934:	f001 fdc8 	bl	100044c8 <vTaskExitCritical>
10002938:	f000 fe0c 	bl	10003554 <vTaskSuspendAll>
1000293c:	f001 fa70 	bl	10003e20 <vTaskEnterCritical>
10002940:	f894 3044 	ldrb.w	r3, [r4, #68]	@ 0x44
10002944:	2bff      	cmp	r3, #255	@ 0xff
10002946:	bf08      	it	eq
10002948:	f884 6044 	strbeq.w	r6, [r4, #68]	@ 0x44
1000294c:	f894 3045 	ldrb.w	r3, [r4, #69]	@ 0x45
10002950:	2bff      	cmp	r3, #255	@ 0xff
10002952:	bf08      	it	eq
10002954:	f884 6045 	strbeq.w	r6, [r4, #69]	@ 0x45
10002958:	f001 fdb6 	bl	100044c8 <vTaskExitCritical>
1000295c:	a901      	add	r1, sp, #4
1000295e:	a802      	add	r0, sp, #8
10002960:	f001 fd16 	bl	10004390 <xTaskCheckForTimeOut>
10002964:	b9e0      	cbnz	r0, 100029a0 <xQueueReceive+0x8c>
10002966:	f001 fa5b 	bl	10003e20 <vTaskEnterCritical>
1000296a:	6ba3      	ldr	r3, [r4, #56]	@ 0x38
1000296c:	bb2b      	cbnz	r3, 100029ba <xQueueReceive+0xa6>
1000296e:	f001 fdab 	bl	100044c8 <vTaskExitCritical>
10002972:	9901      	ldr	r1, [sp, #4]
10002974:	f104 0024 	add.w	r0, r4, #36	@ 0x24
10002978:	f001 f8a4 	bl	10003ac4 <vTaskPlaceOnEventList>
1000297c:	4620      	mov	r0, r4
1000297e:	f7ff fe2f 	bl	100025e0 <prvUnlockQueue>
10002982:	f001 fcb3 	bl	100042ec <xTaskResumeAll>
10002986:	b300      	cbz	r0, 100029ca <xQueueReceive+0xb6>
10002988:	f001 fa4a 	bl	10003e20 <vTaskEnterCritical>
1000298c:	6ba5      	ldr	r5, [r4, #56]	@ 0x38
1000298e:	b9fd      	cbnz	r5, 100029d0 <xQueueReceive+0xbc>
10002990:	9b01      	ldr	r3, [sp, #4]
10002992:	2b00      	cmp	r3, #0
10002994:	d1ce      	bne.n	10002934 <xQueueReceive+0x20>
10002996:	f001 fd97 	bl	100044c8 <vTaskExitCritical>
1000299a:	2000      	movs	r0, #0
1000299c:	b005      	add	sp, #20
1000299e:	bdf0      	pop	{r4, r5, r6, r7, pc}
100029a0:	4620      	mov	r0, r4
100029a2:	f7ff fe1d 	bl	100025e0 <prvUnlockQueue>
100029a6:	f001 fca1 	bl	100042ec <xTaskResumeAll>
100029aa:	f001 fa39 	bl	10003e20 <vTaskEnterCritical>
100029ae:	6ba3      	ldr	r3, [r4, #56]	@ 0x38
100029b0:	2b00      	cmp	r3, #0
100029b2:	d0f0      	beq.n	10002996 <xQueueReceive+0x82>
100029b4:	f001 fd88 	bl	100044c8 <vTaskExitCritical>
100029b8:	e7e6      	b.n	10002988 <xQueueReceive+0x74>
100029ba:	f001 fd85 	bl	100044c8 <vTaskExitCritical>
100029be:	4620      	mov	r0, r4
100029c0:	f7ff fe0e 	bl	100025e0 <prvUnlockQueue>
100029c4:	f001 fc92 	bl	100042ec <xTaskResumeAll>
100029c8:	e7de      	b.n	10002988 <xQueueReceive+0x74>
100029ca:	f001 fa17 	bl	10003dfc <vTaskYieldWithinAPI>
100029ce:	e7db      	b.n	10002988 <xQueueReceive+0x74>
100029d0:	6c22      	ldr	r2, [r4, #64]	@ 0x40
100029d2:	b15a      	cbz	r2, 100029ec <xQueueReceive+0xd8>
100029d4:	68e1      	ldr	r1, [r4, #12]
100029d6:	68a3      	ldr	r3, [r4, #8]
100029d8:	4411      	add	r1, r2
100029da:	4299      	cmp	r1, r3
100029dc:	60e1      	str	r1, [r4, #12]
100029de:	bf28      	it	cs
100029e0:	6821      	ldrcs	r1, [r4, #0]
100029e2:	4638      	mov	r0, r7
100029e4:	bf28      	it	cs
100029e6:	60e1      	strcs	r1, [r4, #12]
100029e8:	f002 f964 	bl	10004cb4 <memcpy>
100029ec:	6923      	ldr	r3, [r4, #16]
100029ee:	3d01      	subs	r5, #1
100029f0:	63a5      	str	r5, [r4, #56]	@ 0x38
100029f2:	b923      	cbnz	r3, 100029fe <xQueueReceive+0xea>
100029f4:	f001 fd68 	bl	100044c8 <vTaskExitCritical>
100029f8:	2001      	movs	r0, #1
100029fa:	b005      	add	sp, #20
100029fc:	bdf0      	pop	{r4, r5, r6, r7, pc}
100029fe:	f104 0010 	add.w	r0, r4, #16
10002a02:	f001 f917 	bl	10003c34 <xTaskRemoveFromEventList>
10002a06:	2800      	cmp	r0, #0
10002a08:	d0f4      	beq.n	100029f4 <xQueueReceive+0xe0>
10002a0a:	f001 f9f7 	bl	10003dfc <vTaskYieldWithinAPI>
10002a0e:	e7f1      	b.n	100029f4 <xQueueReceive+0xe0>

10002a10 <vQueueAddToRegistry>:
10002a10:	2900      	cmp	r1, #0
10002a12:	d055      	beq.n	10002ac0 <vQueueAddToRegistry+0xb0>
10002a14:	4b44      	ldr	r3, [pc, #272]	@ (10002b28 <vQueueAddToRegistry+0x118>)
10002a16:	685a      	ldr	r2, [r3, #4]
10002a18:	4290      	cmp	r0, r2
10002a1a:	d072      	beq.n	10002b02 <vQueueAddToRegistry+0xf2>
10002a1c:	681a      	ldr	r2, [r3, #0]
10002a1e:	b410      	push	{r4}
10002a20:	2a00      	cmp	r2, #0
10002a22:	d02c      	beq.n	10002a7e <vQueueAddToRegistry+0x6e>
10002a24:	68da      	ldr	r2, [r3, #12]
10002a26:	4290      	cmp	r0, r2
10002a28:	d07b      	beq.n	10002b22 <vQueueAddToRegistry+0x112>
10002a2a:	689a      	ldr	r2, [r3, #8]
10002a2c:	2a00      	cmp	r2, #0
10002a2e:	d041      	beq.n	10002ab4 <vQueueAddToRegistry+0xa4>
10002a30:	695a      	ldr	r2, [r3, #20]
10002a32:	4290      	cmp	r0, r2
10002a34:	d073      	beq.n	10002b1e <vQueueAddToRegistry+0x10e>
10002a36:	691a      	ldr	r2, [r3, #16]
10002a38:	2a00      	cmp	r2, #0
10002a3a:	d042      	beq.n	10002ac2 <vQueueAddToRegistry+0xb2>
10002a3c:	69da      	ldr	r2, [r3, #28]
10002a3e:	4290      	cmp	r0, r2
10002a40:	d065      	beq.n	10002b0e <vQueueAddToRegistry+0xfe>
10002a42:	699a      	ldr	r2, [r3, #24]
10002a44:	2a00      	cmp	r2, #0
10002a46:	d042      	beq.n	10002ace <vQueueAddToRegistry+0xbe>
10002a48:	6a5a      	ldr	r2, [r3, #36]	@ 0x24
10002a4a:	4290      	cmp	r0, r2
10002a4c:	d044      	beq.n	10002ad8 <vQueueAddToRegistry+0xc8>
10002a4e:	6a1a      	ldr	r2, [r3, #32]
10002a50:	2a00      	cmp	r2, #0
10002a52:	d045      	beq.n	10002ae0 <vQueueAddToRegistry+0xd0>
10002a54:	6ada      	ldr	r2, [r3, #44]	@ 0x2c
10002a56:	4290      	cmp	r0, r2
10002a58:	d05b      	beq.n	10002b12 <vQueueAddToRegistry+0x102>
10002a5a:	6a9a      	ldr	r2, [r3, #40]	@ 0x28
10002a5c:	2a00      	cmp	r2, #0
10002a5e:	d044      	beq.n	10002aea <vQueueAddToRegistry+0xda>
10002a60:	6b5a      	ldr	r2, [r3, #52]	@ 0x34
10002a62:	4290      	cmp	r0, r2
10002a64:	d057      	beq.n	10002b16 <vQueueAddToRegistry+0x106>
10002a66:	6b1a      	ldr	r2, [r3, #48]	@ 0x30
10002a68:	2a00      	cmp	r2, #0
10002a6a:	d043      	beq.n	10002af4 <vQueueAddToRegistry+0xe4>
10002a6c:	6bda      	ldr	r2, [r3, #60]	@ 0x3c
10002a6e:	4290      	cmp	r0, r2
10002a70:	d053      	beq.n	10002b1a <vQueueAddToRegistry+0x10a>
10002a72:	6b9b      	ldr	r3, [r3, #56]	@ 0x38
10002a74:	2b00      	cmp	r3, #0
10002a76:	d042      	beq.n	10002afe <vQueueAddToRegistry+0xee>
10002a78:	f85d 4b04 	ldr.w	r4, [sp], #4
10002a7c:	4770      	bx	lr
10002a7e:	68da      	ldr	r2, [r3, #12]
10002a80:	4290      	cmp	r0, r2
10002a82:	d04e      	beq.n	10002b22 <vQueueAddToRegistry+0x112>
10002a84:	695a      	ldr	r2, [r3, #20]
10002a86:	4290      	cmp	r0, r2
10002a88:	d049      	beq.n	10002b1e <vQueueAddToRegistry+0x10e>
10002a8a:	461a      	mov	r2, r3
10002a8c:	69dc      	ldr	r4, [r3, #28]
10002a8e:	42a0      	cmp	r0, r4
10002a90:	d03d      	beq.n	10002b0e <vQueueAddToRegistry+0xfe>
10002a92:	6a5c      	ldr	r4, [r3, #36]	@ 0x24
10002a94:	42a0      	cmp	r0, r4
10002a96:	d01f      	beq.n	10002ad8 <vQueueAddToRegistry+0xc8>
10002a98:	6adc      	ldr	r4, [r3, #44]	@ 0x2c
10002a9a:	42a0      	cmp	r0, r4
10002a9c:	d039      	beq.n	10002b12 <vQueueAddToRegistry+0x102>
10002a9e:	6b5c      	ldr	r4, [r3, #52]	@ 0x34
10002aa0:	42a0      	cmp	r0, r4
10002aa2:	d038      	beq.n	10002b16 <vQueueAddToRegistry+0x106>
10002aa4:	6bdc      	ldr	r4, [r3, #60]	@ 0x3c
10002aa6:	42a0      	cmp	r0, r4
10002aa8:	d037      	beq.n	10002b1a <vQueueAddToRegistry+0x10a>
10002aaa:	e9c2 1000 	strd	r1, r0, [r2]
10002aae:	f85d 4b04 	ldr.w	r4, [sp], #4
10002ab2:	4770      	bx	lr
10002ab4:	695a      	ldr	r2, [r3, #20]
10002ab6:	4290      	cmp	r0, r2
10002ab8:	d031      	beq.n	10002b1e <vQueueAddToRegistry+0x10e>
10002aba:	f103 0208 	add.w	r2, r3, #8
10002abe:	e7e5      	b.n	10002a8c <vQueueAddToRegistry+0x7c>
10002ac0:	4770      	bx	lr
10002ac2:	69da      	ldr	r2, [r3, #28]
10002ac4:	4290      	cmp	r0, r2
10002ac6:	d022      	beq.n	10002b0e <vQueueAddToRegistry+0xfe>
10002ac8:	f103 0210 	add.w	r2, r3, #16
10002acc:	e7e1      	b.n	10002a92 <vQueueAddToRegistry+0x82>
10002ace:	6a5a      	ldr	r2, [r3, #36]	@ 0x24
10002ad0:	4290      	cmp	r0, r2
10002ad2:	d001      	beq.n	10002ad8 <vQueueAddToRegistry+0xc8>
10002ad4:	4a15      	ldr	r2, [pc, #84]	@ (10002b2c <vQueueAddToRegistry+0x11c>)
10002ad6:	e7df      	b.n	10002a98 <vQueueAddToRegistry+0x88>
10002ad8:	2204      	movs	r2, #4
10002ada:	eb03 02c2 	add.w	r2, r3, r2, lsl #3
10002ade:	e7e4      	b.n	10002aaa <vQueueAddToRegistry+0x9a>
10002ae0:	6ada      	ldr	r2, [r3, #44]	@ 0x2c
10002ae2:	4290      	cmp	r0, r2
10002ae4:	d015      	beq.n	10002b12 <vQueueAddToRegistry+0x102>
10002ae6:	4a12      	ldr	r2, [pc, #72]	@ (10002b30 <vQueueAddToRegistry+0x120>)
10002ae8:	e7d9      	b.n	10002a9e <vQueueAddToRegistry+0x8e>
10002aea:	6b5a      	ldr	r2, [r3, #52]	@ 0x34
10002aec:	4290      	cmp	r0, r2
10002aee:	d012      	beq.n	10002b16 <vQueueAddToRegistry+0x106>
10002af0:	4a10      	ldr	r2, [pc, #64]	@ (10002b34 <vQueueAddToRegistry+0x124>)
10002af2:	e7d7      	b.n	10002aa4 <vQueueAddToRegistry+0x94>
10002af4:	6bda      	ldr	r2, [r3, #60]	@ 0x3c
10002af6:	4290      	cmp	r0, r2
10002af8:	d00f      	beq.n	10002b1a <vQueueAddToRegistry+0x10a>
10002afa:	4a0f      	ldr	r2, [pc, #60]	@ (10002b38 <vQueueAddToRegistry+0x128>)
10002afc:	e7d5      	b.n	10002aaa <vQueueAddToRegistry+0x9a>
10002afe:	4a0f      	ldr	r2, [pc, #60]	@ (10002b3c <vQueueAddToRegistry+0x12c>)
10002b00:	e7d3      	b.n	10002aaa <vQueueAddToRegistry+0x9a>
10002b02:	2200      	movs	r2, #0
10002b04:	eb03 02c2 	add.w	r2, r3, r2, lsl #3
10002b08:	e9c2 1000 	strd	r1, r0, [r2]
10002b0c:	4770      	bx	lr
10002b0e:	2203      	movs	r2, #3
10002b10:	e7e3      	b.n	10002ada <vQueueAddToRegistry+0xca>
10002b12:	2205      	movs	r2, #5
10002b14:	e7e1      	b.n	10002ada <vQueueAddToRegistry+0xca>
10002b16:	2206      	movs	r2, #6
10002b18:	e7df      	b.n	10002ada <vQueueAddToRegistry+0xca>
10002b1a:	2207      	movs	r2, #7
10002b1c:	e7dd      	b.n	10002ada <vQueueAddToRegistry+0xca>
10002b1e:	2202      	movs	r2, #2
10002b20:	e7db      	b.n	10002ada <vQueueAddToRegistry+0xca>
10002b22:	2201      	movs	r2, #1
10002b24:	e7d9      	b.n	10002ada <vQueueAddToRegistry+0xca>
10002b26:	bf00      	nop
10002b28:	20000810 	.word	0x20000810
10002b2c:	20000828 	.word	0x20000828
10002b30:	20000830 	.word	0x20000830
10002b34:	20000838 	.word	0x20000838
10002b38:	20000840 	.word	0x20000840
10002b3c:	20000848 	.word	0x20000848

10002b40 <vQueueWaitForMessageRestricted>:
10002b40:	b570      	push	{r4, r5, r6, lr}
10002b42:	4604      	mov	r4, r0
10002b44:	460e      	mov	r6, r1
10002b46:	4615      	mov	r5, r2
10002b48:	f001 f96a 	bl	10003e20 <vTaskEnterCritical>
10002b4c:	f894 3044 	ldrb.w	r3, [r4, #68]	@ 0x44
10002b50:	2bff      	cmp	r3, #255	@ 0xff
10002b52:	bf04      	itt	eq
10002b54:	2300      	moveq	r3, #0
10002b56:	f884 3044 	strbeq.w	r3, [r4, #68]	@ 0x44
10002b5a:	f894 3045 	ldrb.w	r3, [r4, #69]	@ 0x45
10002b5e:	2bff      	cmp	r3, #255	@ 0xff
10002b60:	bf04      	itt	eq
10002b62:	2300      	moveq	r3, #0
10002b64:	f884 3045 	strbeq.w	r3, [r4, #69]	@ 0x45
10002b68:	f001 fcae 	bl	100044c8 <vTaskExitCritical>
10002b6c:	6ba3      	ldr	r3, [r4, #56]	@ 0x38
10002b6e:	b123      	cbz	r3, 10002b7a <vQueueWaitForMessageRestricted+0x3a>
10002b70:	4620      	mov	r0, r4
10002b72:	e8bd 4070 	ldmia.w	sp!, {r4, r5, r6, lr}
10002b76:	f7ff bd33 	b.w	100025e0 <prvUnlockQueue>
10002b7a:	f104 0024 	add.w	r0, r4, #36	@ 0x24
10002b7e:	462a      	mov	r2, r5
10002b80:	4631      	mov	r1, r6
10002b82:	f001 f809 	bl	10003b98 <vTaskPlaceOnEventListRestricted>
10002b86:	4620      	mov	r0, r4
10002b88:	e8bd 4070 	ldmia.w	sp!, {r4, r5, r6, lr}
10002b8c:	f7ff bd28 	b.w	100025e0 <prvUnlockQueue>

10002b90 <prvPassiveIdleTask>:
10002b90:	4c06      	ldr	r4, [pc, #24]	@ (10002bac <prvPassiveIdleTask+0x1c>)
10002b92:	b508      	push	{r3, lr}
10002b94:	f7ff f984 	bl	10001ea0 <vPortYield>
10002b98:	6823      	ldr	r3, [r4, #0]
10002b9a:	2b02      	cmp	r3, #2
10002b9c:	d800      	bhi.n	10002ba0 <prvPassiveIdleTask+0x10>
10002b9e:	e7fe      	b.n	10002b9e <prvPassiveIdleTask+0xe>
10002ba0:	f7ff f97e 	bl	10001ea0 <vPortYield>
10002ba4:	6823      	ldr	r3, [r4, #0]
10002ba6:	2b02      	cmp	r3, #2
10002ba8:	d8fa      	bhi.n	10002ba0 <prvPassiveIdleTask+0x10>
10002baa:	e7f8      	b.n	10002b9e <prvPassiveIdleTask+0xe>
10002bac:	2000090c 	.word	0x2000090c

10002bb0 <prvYieldForTask>:
10002bb0:	b5f8      	push	{r3, r4, r5, r6, r7, lr}
10002bb2:	6b83      	ldr	r3, [r0, #56]	@ 0x38
10002bb4:	2b00      	cmp	r3, #0
10002bb6:	db02      	blt.n	10002bbe <prvYieldForTask+0xe>
10002bb8:	6b83      	ldr	r3, [r0, #56]	@ 0x38
10002bba:	2b01      	cmp	r3, #1
10002bbc:	dd16      	ble.n	10002bec <prvYieldForTask+0x3c>
10002bbe:	4c32      	ldr	r4, [pc, #200]	@ (10002c88 <prvYieldForTask+0xd8>)
10002bc0:	6b03      	ldr	r3, [r0, #48]	@ 0x30
10002bc2:	6826      	ldr	r6, [r4, #0]
10002bc4:	1e5a      	subs	r2, r3, #1
10002bc6:	6827      	ldr	r7, [r4, #0]
10002bc8:	6823      	ldr	r3, [r4, #0]
10002bca:	6b9b      	ldr	r3, [r3, #56]	@ 0x38
10002bcc:	2b00      	cmp	r3, #0
10002bce:	db03      	blt.n	10002bd8 <prvYieldForTask+0x28>
10002bd0:	6823      	ldr	r3, [r4, #0]
10002bd2:	6b9b      	ldr	r3, [r3, #56]	@ 0x38
10002bd4:	2b01      	cmp	r3, #1
10002bd6:	dd0a      	ble.n	10002bee <prvYieldForTask+0x3e>
10002bd8:	6866      	ldr	r6, [r4, #4]
10002bda:	6865      	ldr	r5, [r4, #4]
10002bdc:	6863      	ldr	r3, [r4, #4]
10002bde:	6b9b      	ldr	r3, [r3, #56]	@ 0x38
10002be0:	2b00      	cmp	r3, #0
10002be2:	db03      	blt.n	10002bec <prvYieldForTask+0x3c>
10002be4:	6863      	ldr	r3, [r4, #4]
10002be6:	6b9b      	ldr	r3, [r3, #56]	@ 0x38
10002be8:	2b01      	cmp	r3, #1
10002bea:	dd20      	ble.n	10002c2e <prvYieldForTask+0x7e>
10002bec:	bdf8      	pop	{r3, r4, r5, r6, r7, pc}
10002bee:	4927      	ldr	r1, [pc, #156]	@ (10002c8c <prvYieldForTask+0xdc>)
10002bf0:	680d      	ldr	r5, [r1, #0]
10002bf2:	2d00      	cmp	r5, #0
10002bf4:	d1f0      	bne.n	10002bd8 <prvYieldForTask+0x28>
10002bf6:	6bff      	ldr	r7, [r7, #60]	@ 0x3c
10002bf8:	6b33      	ldr	r3, [r6, #48]	@ 0x30
10002bfa:	f007 0601 	and.w	r6, r7, #1
10002bfe:	1b9b      	subs	r3, r3, r6
10002c00:	429a      	cmp	r2, r3
10002c02:	dbe9      	blt.n	10002bd8 <prvYieldForTask+0x28>
10002c04:	6846      	ldr	r6, [r0, #4]
10002c06:	07f6      	lsls	r6, r6, #31
10002c08:	d5e6      	bpl.n	10002bd8 <prvYieldForTask+0x28>
10002c0a:	f8d4 c004 	ldr.w	ip, [r4, #4]
10002c0e:	6867      	ldr	r7, [r4, #4]
10002c10:	6862      	ldr	r2, [r4, #4]
10002c12:	6b92      	ldr	r2, [r2, #56]	@ 0x38
10002c14:	2a00      	cmp	r2, #0
10002c16:	db1a      	blt.n	10002c4e <prvYieldForTask+0x9e>
10002c18:	6862      	ldr	r2, [r4, #4]
10002c1a:	6b92      	ldr	r2, [r2, #56]	@ 0x38
10002c1c:	2a01      	cmp	r2, #1
10002c1e:	dc16      	bgt.n	10002c4e <prvYieldForTask+0x9e>
10002c20:	684e      	ldr	r6, [r1, #4]
10002c22:	b9a6      	cbnz	r6, 10002c4e <prvYieldForTask+0x9e>
10002c24:	461a      	mov	r2, r3
10002c26:	6bfd      	ldr	r5, [r7, #60]	@ 0x3c
10002c28:	f8dc 3030 	ldr.w	r3, [ip, #48]	@ 0x30
10002c2c:	e007      	b.n	10002c3e <prvYieldForTask+0x8e>
10002c2e:	4917      	ldr	r1, [pc, #92]	@ (10002c8c <prvYieldForTask+0xdc>)
10002c30:	684b      	ldr	r3, [r1, #4]
10002c32:	2b00      	cmp	r3, #0
10002c34:	d1da      	bne.n	10002bec <prvYieldForTask+0x3c>
10002c36:	6b33      	ldr	r3, [r6, #48]	@ 0x30
10002c38:	f04f 36ff 	mov.w	r6, #4294967295
10002c3c:	6bed      	ldr	r5, [r5, #60]	@ 0x3c
10002c3e:	f005 0501 	and.w	r5, r5, #1
10002c42:	1b5b      	subs	r3, r3, r5
10002c44:	4293      	cmp	r3, r2
10002c46:	dd19      	ble.n	10002c7c <prvYieldForTask+0xcc>
10002c48:	3601      	adds	r6, #1
10002c4a:	d0cf      	beq.n	10002bec <prvYieldForTask+0x3c>
10002c4c:	2500      	movs	r5, #0
10002c4e:	f04f 4350 	mov.w	r3, #3489660928	@ 0xd0000000
10002c52:	681b      	ldr	r3, [r3, #0]
10002c54:	429d      	cmp	r5, r3
10002c56:	d00d      	beq.n	10002c74 <prvYieldForTask+0xc4>
10002c58:	f854 3025 	ldr.w	r3, [r4, r5, lsl #2]
10002c5c:	6b9b      	ldr	r3, [r3, #56]	@ 0x38
10002c5e:	3302      	adds	r3, #2
10002c60:	d0c4      	beq.n	10002bec <prvYieldForTask+0x3c>
10002c62:	4628      	mov	r0, r5
10002c64:	f7ff fabe 	bl	100021e4 <vYieldCore>
10002c68:	f06f 0201 	mvn.w	r2, #1
10002c6c:	f854 3025 	ldr.w	r3, [r4, r5, lsl #2]
10002c70:	639a      	str	r2, [r3, #56]	@ 0x38
10002c72:	bdf8      	pop	{r3, r4, r5, r6, r7, pc}
10002c74:	2301      	movs	r3, #1
10002c76:	f841 3025 	str.w	r3, [r1, r5, lsl #2]
10002c7a:	bdf8      	pop	{r3, r4, r5, r6, r7, pc}
10002c7c:	6843      	ldr	r3, [r0, #4]
10002c7e:	079b      	lsls	r3, r3, #30
10002c80:	d5e2      	bpl.n	10002c48 <prvYieldForTask+0x98>
10002c82:	2501      	movs	r5, #1
10002c84:	e7e3      	b.n	10002c4e <prvYieldForTask+0x9e>
10002c86:	bf00      	nop
10002c88:	200008f0 	.word	0x200008f0
10002c8c:	20020c90 	.word	0x20020c90

10002c90 <vTaskExitCritical.part.0>:
10002c90:	f04f 4150 	mov.w	r1, #3489660928	@ 0xd0000000
10002c94:	4b1b      	ldr	r3, [pc, #108]	@ (10002d04 <vTaskExitCritical.part.0+0x74>)
10002c96:	680a      	ldr	r2, [r1, #0]
10002c98:	f853 0022 	ldr.w	r0, [r3, r2, lsl #2]
10002c9c:	2800      	cmp	r0, #0
10002c9e:	d02c      	beq.n	10002cfa <vTaskExitCritical.part.0+0x6a>
10002ca0:	f853 0022 	ldr.w	r0, [r3, r2, lsl #2]
10002ca4:	3801      	subs	r0, #1
10002ca6:	f843 0022 	str.w	r0, [r3, r2, lsl #2]
10002caa:	680a      	ldr	r2, [r1, #0]
10002cac:	f853 3022 	ldr.w	r3, [r3, r2, lsl #2]
10002cb0:	bb1b      	cbnz	r3, 10002cfa <vTaskExitCritical.part.0+0x6a>
10002cb2:	b510      	push	{r4, lr}
10002cb4:	4914      	ldr	r1, [pc, #80]	@ (10002d08 <vTaskExitCritical.part.0+0x78>)
10002cb6:	4b15      	ldr	r3, [pc, #84]	@ (10002d0c <vTaskExitCritical.part.0+0x7c>)
10002cb8:	f853 4022 	ldr.w	r4, [r3, r2, lsl #2]
10002cbc:	780b      	ldrb	r3, [r1, #0]
10002cbe:	3b01      	subs	r3, #1
10002cc0:	b2db      	uxtb	r3, r3
10002cc2:	700b      	strb	r3, [r1, #0]
10002cc4:	b92b      	cbnz	r3, 10002cd2 <vTaskExitCritical.part.0+0x42>
10002cc6:	4812      	ldr	r0, [pc, #72]	@ (10002d10 <vTaskExitCritical.part.0+0x80>)
10002cc8:	f800 3012 	strb.w	r3, [r0, r2, lsl #1]
10002ccc:	4a11      	ldr	r2, [pc, #68]	@ (10002d14 <vTaskExitCritical.part.0+0x84>)
10002cce:	e8c2 3f8f 	stlb	r3, [r2]
10002cd2:	f04f 4250 	mov.w	r2, #3489660928	@ 0xd0000000
10002cd6:	784b      	ldrb	r3, [r1, #1]
10002cd8:	6810      	ldr	r0, [r2, #0]
10002cda:	3b01      	subs	r3, #1
10002cdc:	b2db      	uxtb	r3, r3
10002cde:	704b      	strb	r3, [r1, #1]
10002ce0:	b933      	cbnz	r3, 10002cf0 <vTaskExitCritical.part.0+0x60>
10002ce2:	4a0b      	ldr	r2, [pc, #44]	@ (10002d10 <vTaskExitCritical.part.0+0x80>)
10002ce4:	490c      	ldr	r1, [pc, #48]	@ (10002d18 <vTaskExitCritical.part.0+0x88>)
10002ce6:	eb02 0240 	add.w	r2, r2, r0, lsl #1
10002cea:	7053      	strb	r3, [r2, #1]
10002cec:	e8c1 3f8f 	stlb	r3, [r1]
10002cf0:	2000      	movs	r0, #0
10002cf2:	f7ff fab5 	bl	10002260 <vClearInterruptMask>
10002cf6:	b90c      	cbnz	r4, 10002cfc <vTaskExitCritical.part.0+0x6c>
10002cf8:	bd10      	pop	{r4, pc}
10002cfa:	4770      	bx	lr
10002cfc:	e8bd 4010 	ldmia.w	sp!, {r4, lr}
10002d00:	f7ff b8ce 	b.w	10001ea0 <vPortYield>
10002d04:	20020ba0 	.word	0x20020ba0
10002d08:	20020b9c 	.word	0x20020b9c
10002d0c:	20020c90 	.word	0x20020c90
10002d10:	20020b98 	.word	0x20020b98
10002d14:	2000085e 	.word	0x2000085e
10002d18:	2000085f 	.word	0x2000085f

10002d1c <prvCreateTask>:
10002d1c:	e92d 43f8 	stmdb	sp!, {r3, r4, r5, r6, r7, r8, r9, lr}
10002d20:	0096      	lsls	r6, r2, #2
10002d22:	4680      	mov	r8, r0
10002d24:	4630      	mov	r0, r6
10002d26:	460d      	mov	r5, r1
10002d28:	4699      	mov	r9, r3
10002d2a:	f001 fe99 	bl	10004a60 <pvPortMalloc>
10002d2e:	2800      	cmp	r0, #0
10002d30:	f000 8088 	beq.w	10002e44 <prvCreateTask+0x128>
10002d34:	4607      	mov	r7, r0
10002d36:	207c      	movs	r0, #124	@ 0x7c
10002d38:	f001 fe92 	bl	10004a60 <pvPortMalloc>
10002d3c:	4604      	mov	r4, r0
10002d3e:	2800      	cmp	r0, #0
10002d40:	d07d      	beq.n	10002e3e <prvCreateTask+0x122>
10002d42:	227c      	movs	r2, #124	@ 0x7c
10002d44:	2100      	movs	r1, #0
10002d46:	f001 ff67 	bl	10004c18 <memset>
10002d4a:	4632      	mov	r2, r6
10002d4c:	21a5      	movs	r1, #165	@ 0xa5
10002d4e:	4638      	mov	r0, r7
10002d50:	6367      	str	r7, [r4, #52]	@ 0x34
10002d52:	f001 ff61 	bl	10004c18 <memset>
10002d56:	6b63      	ldr	r3, [r4, #52]	@ 0x34
10002d58:	3e04      	subs	r6, #4
10002d5a:	441e      	add	r6, r3
10002d5c:	f026 0607 	bic.w	r6, r6, #7
10002d60:	2d00      	cmp	r5, #0
10002d62:	d03e      	beq.n	10002de2 <prvCreateTask+0xc6>
10002d64:	782b      	ldrb	r3, [r5, #0]
10002d66:	f884 3040 	strb.w	r3, [r4, #64]	@ 0x40
10002d6a:	2b00      	cmp	r3, #0
10002d6c:	d036      	beq.n	10002ddc <prvCreateTask+0xc0>
10002d6e:	786b      	ldrb	r3, [r5, #1]
10002d70:	f884 3041 	strb.w	r3, [r4, #65]	@ 0x41
10002d74:	b393      	cbz	r3, 10002ddc <prvCreateTask+0xc0>
10002d76:	78ab      	ldrb	r3, [r5, #2]
10002d78:	f884 3042 	strb.w	r3, [r4, #66]	@ 0x42
10002d7c:	b373      	cbz	r3, 10002ddc <prvCreateTask+0xc0>
10002d7e:	78eb      	ldrb	r3, [r5, #3]
10002d80:	f884 3043 	strb.w	r3, [r4, #67]	@ 0x43
10002d84:	b353      	cbz	r3, 10002ddc <prvCreateTask+0xc0>
10002d86:	792b      	ldrb	r3, [r5, #4]
10002d88:	f884 3044 	strb.w	r3, [r4, #68]	@ 0x44
10002d8c:	b333      	cbz	r3, 10002ddc <prvCreateTask+0xc0>
10002d8e:	796b      	ldrb	r3, [r5, #5]
10002d90:	f884 3045 	strb.w	r3, [r4, #69]	@ 0x45
10002d94:	b313      	cbz	r3, 10002ddc <prvCreateTask+0xc0>
10002d96:	79ab      	ldrb	r3, [r5, #6]
10002d98:	f884 3046 	strb.w	r3, [r4, #70]	@ 0x46
10002d9c:	b1f3      	cbz	r3, 10002ddc <prvCreateTask+0xc0>
10002d9e:	79eb      	ldrb	r3, [r5, #7]
10002da0:	f884 3047 	strb.w	r3, [r4, #71]	@ 0x47
10002da4:	b1d3      	cbz	r3, 10002ddc <prvCreateTask+0xc0>
10002da6:	7a2b      	ldrb	r3, [r5, #8]
10002da8:	f884 3048 	strb.w	r3, [r4, #72]	@ 0x48
10002dac:	b1b3      	cbz	r3, 10002ddc <prvCreateTask+0xc0>
10002dae:	7a6b      	ldrb	r3, [r5, #9]
10002db0:	f884 3049 	strb.w	r3, [r4, #73]	@ 0x49
10002db4:	b193      	cbz	r3, 10002ddc <prvCreateTask+0xc0>
10002db6:	7aab      	ldrb	r3, [r5, #10]
10002db8:	f884 304a 	strb.w	r3, [r4, #74]	@ 0x4a
10002dbc:	b173      	cbz	r3, 10002ddc <prvCreateTask+0xc0>
10002dbe:	7aeb      	ldrb	r3, [r5, #11]
10002dc0:	f884 304b 	strb.w	r3, [r4, #75]	@ 0x4b
10002dc4:	b153      	cbz	r3, 10002ddc <prvCreateTask+0xc0>
10002dc6:	7b2b      	ldrb	r3, [r5, #12]
10002dc8:	f884 304c 	strb.w	r3, [r4, #76]	@ 0x4c
10002dcc:	b133      	cbz	r3, 10002ddc <prvCreateTask+0xc0>
10002dce:	7b6b      	ldrb	r3, [r5, #13]
10002dd0:	f884 304d 	strb.w	r3, [r4, #77]	@ 0x4d
10002dd4:	b113      	cbz	r3, 10002ddc <prvCreateTask+0xc0>
10002dd6:	7bab      	ldrb	r3, [r5, #14]
10002dd8:	f884 304e 	strb.w	r3, [r4, #78]	@ 0x4e
10002ddc:	2300      	movs	r3, #0
10002dde:	f884 304f 	strb.w	r3, [r4, #79]	@ 0x4f
10002de2:	9d08      	ldr	r5, [sp, #32]
10002de4:	f104 0008 	add.w	r0, r4, #8
10002de8:	2d1f      	cmp	r5, #31
10002dea:	bf28      	it	cs
10002dec:	251f      	movcs	r5, #31
10002dee:	6325      	str	r5, [r4, #48]	@ 0x30
10002df0:	65a5      	str	r5, [r4, #88]	@ 0x58
10002df2:	f7ff fb7b 	bl	100024ec <vListInitialiseItem>
10002df6:	f1c5 0520 	rsb	r5, r5, #32
10002dfa:	f104 001c 	add.w	r0, r4, #28
10002dfe:	f7ff fb75 	bl	100024ec <vListInitialiseItem>
10002e02:	464b      	mov	r3, r9
10002e04:	4642      	mov	r2, r8
10002e06:	4630      	mov	r0, r6
10002e08:	6b61      	ldr	r1, [r4, #52]	@ 0x34
10002e0a:	61e5      	str	r5, [r4, #28]
10002e0c:	6164      	str	r4, [r4, #20]
10002e0e:	62a4      	str	r4, [r4, #40]	@ 0x28
10002e10:	f7ff f868 	bl	10001ee4 <pxPortInitialiseStack>
10002e14:	f04f 32ff 	mov.w	r2, #4294967295
10002e18:	4b0c      	ldr	r3, [pc, #48]	@ (10002e4c <prvCreateTask+0x130>)
10002e1a:	6020      	str	r0, [r4, #0]
10002e1c:	4598      	cmp	r8, r3
10002e1e:	63a2      	str	r2, [r4, #56]	@ 0x38
10002e20:	d008      	beq.n	10002e34 <prvCreateTask+0x118>
10002e22:	4b0b      	ldr	r3, [pc, #44]	@ (10002e50 <prvCreateTask+0x134>)
10002e24:	4598      	cmp	r8, r3
10002e26:	d005      	beq.n	10002e34 <prvCreateTask+0x118>
10002e28:	9b09      	ldr	r3, [sp, #36]	@ 0x24
10002e2a:	b103      	cbz	r3, 10002e2e <prvCreateTask+0x112>
10002e2c:	601c      	str	r4, [r3, #0]
10002e2e:	4620      	mov	r0, r4
10002e30:	e8bd 83f8 	ldmia.w	sp!, {r3, r4, r5, r6, r7, r8, r9, pc}
10002e34:	6be3      	ldr	r3, [r4, #60]	@ 0x3c
10002e36:	f043 0301 	orr.w	r3, r3, #1
10002e3a:	63e3      	str	r3, [r4, #60]	@ 0x3c
10002e3c:	e7f4      	b.n	10002e28 <prvCreateTask+0x10c>
10002e3e:	4638      	mov	r0, r7
10002e40:	f001 fe98 	bl	10004b74 <vPortFree>
10002e44:	2400      	movs	r4, #0
10002e46:	4620      	mov	r0, r4
10002e48:	e8bd 83f8 	ldmia.w	sp!, {r3, r4, r5, r6, r7, r8, r9, pc}
10002e4c:	10003241 	.word	0x10003241
10002e50:	10002b91 	.word	0x10002b91

10002e54 <prvCheckForRunStateChange>:
10002e54:	f04f 4250 	mov.w	r2, #3489660928	@ 0xd0000000
10002e58:	4b50      	ldr	r3, [pc, #320]	@ (10002f9c <prvCheckForRunStateChange+0x148>)
10002e5a:	6812      	ldr	r2, [r2, #0]
10002e5c:	e92d 47f0 	stmdb	sp!, {r4, r5, r6, r7, r8, r9, sl, lr}
10002e60:	f8df 9144 	ldr.w	r9, [pc, #324]	@ 10002fa8 <prvCheckForRunStateChange+0x154>
10002e64:	4c4e      	ldr	r4, [pc, #312]	@ (10002fa0 <prvCheckForRunStateChange+0x14c>)
10002e66:	f8df 8144 	ldr.w	r8, [pc, #324]	@ 10002fac <prvCheckForRunStateChange+0x158>
10002e6a:	f853 6022 	ldr.w	r6, [r3, r2, lsl #2]
10002e6e:	4d4d      	ldr	r5, [pc, #308]	@ (10002fa4 <prvCheckForRunStateChange+0x150>)
10002e70:	e040      	b.n	10002ef4 <prvCheckForRunStateChange+0xa0>
10002e72:	f8df a13c 	ldr.w	sl, [pc, #316]	@ 10002fb0 <prvCheckForRunStateChange+0x15c>
10002e76:	2000      	movs	r0, #0
10002e78:	f7ff f9f2 	bl	10002260 <vClearInterruptMask>
10002e7c:	f7ff f9e4 	bl	10002248 <ulSetInterruptMask>
10002e80:	f04f 4350 	mov.w	r3, #3489660928	@ 0xd0000000
10002e84:	681b      	ldr	r3, [r3, #0]
10002e86:	e8da 2fcf 	ldaexb	r2, [sl]
10002e8a:	2101      	movs	r1, #1
10002e8c:	2a00      	cmp	r2, #0
10002e8e:	d101      	bne.n	10002e94 <prvCheckForRunStateChange+0x40>
10002e90:	e8ca 1f42 	strexb	r2, r1, [sl]
10002e94:	f3bf 8f5f 	dmb	sy
10002e98:	2a00      	cmp	r2, #0
10002e9a:	d150      	bne.n	10002f3e <prvCheckForRunStateChange+0xea>
10002e9c:	005b      	lsls	r3, r3, #1
10002e9e:	2201      	movs	r2, #1
10002ea0:	4443      	add	r3, r8
10002ea2:	7062      	strb	r2, [r4, #1]
10002ea4:	705a      	strb	r2, [r3, #1]
10002ea6:	f04f 4350 	mov.w	r3, #3489660928	@ 0xd0000000
10002eaa:	681a      	ldr	r2, [r3, #0]
10002eac:	e8d5 3fcf 	ldaexb	r3, [r5]
10002eb0:	2101      	movs	r1, #1
10002eb2:	2b00      	cmp	r3, #0
10002eb4:	d101      	bne.n	10002eba <prvCheckForRunStateChange+0x66>
10002eb6:	e8c5 1f43 	strexb	r3, r1, [r5]
10002eba:	f3bf 8f5f 	dmb	sy
10002ebe:	b173      	cbz	r3, 10002ede <prvCheckForRunStateChange+0x8a>
10002ec0:	f818 3012 	ldrb.w	r3, [r8, r2, lsl #1]
10002ec4:	2b00      	cmp	r3, #0
10002ec6:	d14b      	bne.n	10002f60 <prvCheckForRunStateChange+0x10c>
10002ec8:	e8d5 1fcf 	ldaexb	r1, [r5]
10002ecc:	2301      	movs	r3, #1
10002ece:	2900      	cmp	r1, #0
10002ed0:	d1fa      	bne.n	10002ec8 <prvCheckForRunStateChange+0x74>
10002ed2:	e8c5 3f41 	strexb	r1, r3, [r5]
10002ed6:	2900      	cmp	r1, #0
10002ed8:	d1f6      	bne.n	10002ec8 <prvCheckForRunStateChange+0x74>
10002eda:	f3bf 8f5f 	dmb	sy
10002ede:	2301      	movs	r3, #1
10002ee0:	7023      	strb	r3, [r4, #0]
10002ee2:	f808 3012 	strb.w	r3, [r8, r2, lsl #1]
10002ee6:	f04f 4350 	mov.w	r3, #3489660928	@ 0xd0000000
10002eea:	681a      	ldr	r2, [r3, #0]
10002eec:	f849 7022 	str.w	r7, [r9, r2, lsl #2]
10002ef0:	2f00      	cmp	r7, #0
10002ef2:	d040      	beq.n	10002f76 <prvCheckForRunStateChange+0x122>
10002ef4:	6bb3      	ldr	r3, [r6, #56]	@ 0x38
10002ef6:	3302      	adds	r3, #2
10002ef8:	d14e      	bne.n	10002f98 <prvCheckForRunStateChange+0x144>
10002efa:	f04f 4150 	mov.w	r1, #3489660928	@ 0xd0000000
10002efe:	680a      	ldr	r2, [r1, #0]
10002f00:	f859 7022 	ldr.w	r7, [r9, r2, lsl #2]
10002f04:	b16f      	cbz	r7, 10002f22 <prvCheckForRunStateChange+0xce>
10002f06:	2300      	movs	r3, #0
10002f08:	f849 3022 	str.w	r3, [r9, r2, lsl #2]
10002f0c:	7823      	ldrb	r3, [r4, #0]
10002f0e:	680a      	ldr	r2, [r1, #0]
10002f10:	3b01      	subs	r3, #1
10002f12:	b2db      	uxtb	r3, r3
10002f14:	7023      	strb	r3, [r4, #0]
10002f16:	b923      	cbnz	r3, 10002f22 <prvCheckForRunStateChange+0xce>
10002f18:	f808 3012 	strb.w	r3, [r8, r2, lsl #1]
10002f1c:	e8c5 3f8f 	stlb	r3, [r5]
10002f20:	680a      	ldr	r2, [r1, #0]
10002f22:	7863      	ldrb	r3, [r4, #1]
10002f24:	3b01      	subs	r3, #1
10002f26:	b2db      	uxtb	r3, r3
10002f28:	7063      	strb	r3, [r4, #1]
10002f2a:	2b00      	cmp	r3, #0
10002f2c:	d1a1      	bne.n	10002e72 <prvCheckForRunStateChange+0x1e>
10002f2e:	eb08 0242 	add.w	r2, r8, r2, lsl #1
10002f32:	f8df a07c 	ldr.w	sl, [pc, #124]	@ 10002fb0 <prvCheckForRunStateChange+0x15c>
10002f36:	7053      	strb	r3, [r2, #1]
10002f38:	e8ca 3f8f 	stlb	r3, [sl]
10002f3c:	e79b      	b.n	10002e76 <prvCheckForRunStateChange+0x22>
10002f3e:	eb08 0243 	add.w	r2, r8, r3, lsl #1
10002f42:	7852      	ldrb	r2, [r2, #1]
10002f44:	005b      	lsls	r3, r3, #1
10002f46:	bb12      	cbnz	r2, 10002f8e <prvCheckForRunStateChange+0x13a>
10002f48:	e8da 1fcf 	ldaexb	r1, [sl]
10002f4c:	2201      	movs	r2, #1
10002f4e:	2900      	cmp	r1, #0
10002f50:	d1fa      	bne.n	10002f48 <prvCheckForRunStateChange+0xf4>
10002f52:	e8ca 2f41 	strexb	r1, r2, [sl]
10002f56:	2900      	cmp	r1, #0
10002f58:	d1f6      	bne.n	10002f48 <prvCheckForRunStateChange+0xf4>
10002f5a:	f3bf 8f5f 	dmb	sy
10002f5e:	e79e      	b.n	10002e9e <prvCheckForRunStateChange+0x4a>
10002f60:	7823      	ldrb	r3, [r4, #0]
10002f62:	3301      	adds	r3, #1
10002f64:	b2db      	uxtb	r3, r3
10002f66:	7023      	strb	r3, [r4, #0]
10002f68:	f04f 4350 	mov.w	r3, #3489660928	@ 0xd0000000
10002f6c:	681a      	ldr	r2, [r3, #0]
10002f6e:	f849 7022 	str.w	r7, [r9, r2, lsl #2]
10002f72:	2f00      	cmp	r7, #0
10002f74:	d1be      	bne.n	10002ef4 <prvCheckForRunStateChange+0xa0>
10002f76:	681a      	ldr	r2, [r3, #0]
10002f78:	7823      	ldrb	r3, [r4, #0]
10002f7a:	3b01      	subs	r3, #1
10002f7c:	b2db      	uxtb	r3, r3
10002f7e:	7023      	strb	r3, [r4, #0]
10002f80:	2b00      	cmp	r3, #0
10002f82:	d1b7      	bne.n	10002ef4 <prvCheckForRunStateChange+0xa0>
10002f84:	f808 7012 	strb.w	r7, [r8, r2, lsl #1]
10002f88:	e8c5 7f8f 	stlb	r7, [r5]
10002f8c:	e76f      	b.n	10002e6e <prvCheckForRunStateChange+0x1a>
10002f8e:	7863      	ldrb	r3, [r4, #1]
10002f90:	3301      	adds	r3, #1
10002f92:	b2db      	uxtb	r3, r3
10002f94:	7063      	strb	r3, [r4, #1]
10002f96:	e786      	b.n	10002ea6 <prvCheckForRunStateChange+0x52>
10002f98:	e8bd 87f0 	ldmia.w	sp!, {r4, r5, r6, r7, r8, r9, sl, pc}
10002f9c:	200008f0 	.word	0x200008f0
10002fa0:	20020b9c 	.word	0x20020b9c
10002fa4:	2000085e 	.word	0x2000085e
10002fa8:	20020ba0 	.word	0x20020ba0
10002fac:	20020b98 	.word	0x20020b98
10002fb0:	2000085f 	.word	0x2000085f

10002fb4 <vTaskSuspendAll.part.0>:
10002fb4:	b5f8      	push	{r3, r4, r5, r6, r7, lr}
10002fb6:	f7ff f947 	bl	10002248 <ulSetInterruptMask>
10002fba:	f04f 4250 	mov.w	r2, #3489660928	@ 0xd0000000
10002fbe:	4606      	mov	r6, r0
10002fc0:	4b35      	ldr	r3, [pc, #212]	@ (10003098 <vTaskSuspendAll.part.0+0xe4>)
10002fc2:	6812      	ldr	r2, [r2, #0]
10002fc4:	e8d3 1fcf 	ldaexb	r1, [r3]
10002fc8:	2001      	movs	r0, #1
10002fca:	2900      	cmp	r1, #0
10002fcc:	d101      	bne.n	10002fd2 <vTaskSuspendAll.part.0+0x1e>
10002fce:	e8c3 0f41 	strexb	r1, r0, [r3]
10002fd2:	f3bf 8f5f 	dmb	sy
10002fd6:	4d31      	ldr	r5, [pc, #196]	@ (1000309c <vTaskSuspendAll.part.0+0xe8>)
10002fd8:	2900      	cmp	r1, #0
10002fda:	d13e      	bne.n	1000305a <vTaskSuspendAll.part.0+0xa6>
10002fdc:	0051      	lsls	r1, r2, #1
10002fde:	2301      	movs	r3, #1
10002fe0:	4c2f      	ldr	r4, [pc, #188]	@ (100030a0 <vTaskSuspendAll.part.0+0xec>)
10002fe2:	4429      	add	r1, r5
10002fe4:	7063      	strb	r3, [r4, #1]
10002fe6:	704b      	strb	r3, [r1, #1]
10002fe8:	4f2e      	ldr	r7, [pc, #184]	@ (100030a4 <vTaskSuspendAll.part.0+0xf0>)
10002fea:	683b      	ldr	r3, [r7, #0]
10002fec:	2b00      	cmp	r3, #0
10002fee:	d045      	beq.n	1000307c <vTaskSuspendAll.part.0+0xc8>
10002ff0:	f04f 4350 	mov.w	r3, #3489660928	@ 0xd0000000
10002ff4:	4a2c      	ldr	r2, [pc, #176]	@ (100030a8 <vTaskSuspendAll.part.0+0xf4>)
10002ff6:	6819      	ldr	r1, [r3, #0]
10002ff8:	e8d2 3fcf 	ldaexb	r3, [r2]
10002ffc:	2001      	movs	r0, #1
10002ffe:	2b00      	cmp	r3, #0
10003000:	d101      	bne.n	10003006 <vTaskSuspendAll.part.0+0x52>
10003002:	e8c2 0f43 	strexb	r3, r0, [r2]
10003006:	f3bf 8f5f 	dmb	sy
1000300a:	b173      	cbz	r3, 1000302a <vTaskSuspendAll.part.0+0x76>
1000300c:	f815 3011 	ldrb.w	r3, [r5, r1, lsl #1]
10003010:	2b00      	cmp	r3, #0
10003012:	d13c      	bne.n	1000308e <vTaskSuspendAll.part.0+0xda>
10003014:	e8d2 0fcf 	ldaexb	r0, [r2]
10003018:	2301      	movs	r3, #1
1000301a:	2800      	cmp	r0, #0
1000301c:	d1fa      	bne.n	10003014 <vTaskSuspendAll.part.0+0x60>
1000301e:	e8c2 3f40 	strexb	r0, r3, [r2]
10003022:	2800      	cmp	r0, #0
10003024:	d1f6      	bne.n	10003014 <vTaskSuspendAll.part.0+0x60>
10003026:	f3bf 8f5f 	dmb	sy
1000302a:	2301      	movs	r3, #1
1000302c:	7023      	strb	r3, [r4, #0]
1000302e:	f805 3011 	strb.w	r3, [r5, r1, lsl #1]
10003032:	f04f 4150 	mov.w	r1, #3489660928	@ 0xd0000000
10003036:	683b      	ldr	r3, [r7, #0]
10003038:	3301      	adds	r3, #1
1000303a:	603b      	str	r3, [r7, #0]
1000303c:	7823      	ldrb	r3, [r4, #0]
1000303e:	6809      	ldr	r1, [r1, #0]
10003040:	3b01      	subs	r3, #1
10003042:	b2db      	uxtb	r3, r3
10003044:	7023      	strb	r3, [r4, #0]
10003046:	b91b      	cbnz	r3, 10003050 <vTaskSuspendAll.part.0+0x9c>
10003048:	f805 3011 	strb.w	r3, [r5, r1, lsl #1]
1000304c:	e8c2 3f8f 	stlb	r3, [r2]
10003050:	4630      	mov	r0, r6
10003052:	e8bd 40f8 	ldmia.w	sp!, {r3, r4, r5, r6, r7, lr}
10003056:	f7ff b903 	b.w	10002260 <vClearInterruptMask>
1000305a:	0051      	lsls	r1, r2, #1
1000305c:	eb05 0242 	add.w	r2, r5, r2, lsl #1
10003060:	7852      	ldrb	r2, [r2, #1]
10003062:	b972      	cbnz	r2, 10003082 <vTaskSuspendAll.part.0+0xce>
10003064:	e8d3 0fcf 	ldaexb	r0, [r3]
10003068:	2201      	movs	r2, #1
1000306a:	2800      	cmp	r0, #0
1000306c:	d1fa      	bne.n	10003064 <vTaskSuspendAll.part.0+0xb0>
1000306e:	e8c3 2f40 	strexb	r0, r2, [r3]
10003072:	2800      	cmp	r0, #0
10003074:	d1f6      	bne.n	10003064 <vTaskSuspendAll.part.0+0xb0>
10003076:	f3bf 8f5f 	dmb	sy
1000307a:	e7b0      	b.n	10002fde <vTaskSuspendAll.part.0+0x2a>
1000307c:	f7ff feea 	bl	10002e54 <prvCheckForRunStateChange>
10003080:	e7b6      	b.n	10002ff0 <vTaskSuspendAll.part.0+0x3c>
10003082:	4c07      	ldr	r4, [pc, #28]	@ (100030a0 <vTaskSuspendAll.part.0+0xec>)
10003084:	7863      	ldrb	r3, [r4, #1]
10003086:	3301      	adds	r3, #1
10003088:	b2db      	uxtb	r3, r3
1000308a:	7063      	strb	r3, [r4, #1]
1000308c:	e7ac      	b.n	10002fe8 <vTaskSuspendAll.part.0+0x34>
1000308e:	7823      	ldrb	r3, [r4, #0]
10003090:	3301      	adds	r3, #1
10003092:	b2db      	uxtb	r3, r3
10003094:	7023      	strb	r3, [r4, #0]
10003096:	e7cc      	b.n	10003032 <vTaskSuspendAll.part.0+0x7e>
10003098:	2000085f 	.word	0x2000085f
1000309c:	20020b98 	.word	0x20020b98
100030a0:	20020b9c 	.word	0x20020b9c
100030a4:	20020bb4 	.word	0x20020bb4
100030a8:	2000085e 	.word	0x2000085e

100030ac <prvCheckTasksWaitingTermination>:
100030ac:	e92d 43f8 	stmdb	sp!, {r3, r4, r5, r6, r7, r8, r9, lr}
100030b0:	4c59      	ldr	r4, [pc, #356]	@ (10003218 <prvCheckTasksWaitingTermination+0x16c>)
100030b2:	4e5a      	ldr	r6, [pc, #360]	@ (1000321c <prvCheckTasksWaitingTermination+0x170>)
100030b4:	4f5a      	ldr	r7, [pc, #360]	@ (10003220 <prvCheckTasksWaitingTermination+0x174>)
100030b6:	f8df 9180 	ldr.w	r9, [pc, #384]	@ 10003238 <prvCheckTasksWaitingTermination+0x18c>
100030ba:	f8df 8180 	ldr.w	r8, [pc, #384]	@ 1000323c <prvCheckTasksWaitingTermination+0x190>
100030be:	6823      	ldr	r3, [r4, #0]
100030c0:	2b00      	cmp	r3, #0
100030c2:	d037      	beq.n	10003134 <prvCheckTasksWaitingTermination+0x88>
100030c4:	f7ff f8c0 	bl	10002248 <ulSetInterruptMask>
100030c8:	6833      	ldr	r3, [r6, #0]
100030ca:	b193      	cbz	r3, 100030f2 <prvCheckTasksWaitingTermination+0x46>
100030cc:	f04f 4350 	mov.w	r3, #3489660928	@ 0xd0000000
100030d0:	681b      	ldr	r3, [r3, #0]
100030d2:	f857 2023 	ldr.w	r2, [r7, r3, lsl #2]
100030d6:	2a00      	cmp	r2, #0
100030d8:	d03b      	beq.n	10003152 <prvCheckTasksWaitingTermination+0xa6>
100030da:	f04f 4150 	mov.w	r1, #3489660928	@ 0xd0000000
100030de:	f857 2023 	ldr.w	r2, [r7, r3, lsl #2]
100030e2:	3201      	adds	r2, #1
100030e4:	f847 2023 	str.w	r2, [r7, r3, lsl #2]
100030e8:	680b      	ldr	r3, [r1, #0]
100030ea:	f857 3023 	ldr.w	r3, [r7, r3, lsl #2]
100030ee:	2b01      	cmp	r3, #1
100030f0:	d028      	beq.n	10003144 <prvCheckTasksWaitingTermination+0x98>
100030f2:	6823      	ldr	r3, [r4, #0]
100030f4:	b303      	cbz	r3, 10003138 <prvCheckTasksWaitingTermination+0x8c>
100030f6:	4b4b      	ldr	r3, [pc, #300]	@ (10003224 <prvCheckTasksWaitingTermination+0x178>)
100030f8:	68db      	ldr	r3, [r3, #12]
100030fa:	68dd      	ldr	r5, [r3, #12]
100030fc:	6bab      	ldr	r3, [r5, #56]	@ 0x38
100030fe:	3301      	adds	r3, #1
10003100:	f040 8083 	bne.w	1000320a <prvCheckTasksWaitingTermination+0x15e>
10003104:	f105 0008 	add.w	r0, r5, #8
10003108:	f7ff fa1a 	bl	10002540 <uxListRemove>
1000310c:	4a46      	ldr	r2, [pc, #280]	@ (10003228 <prvCheckTasksWaitingTermination+0x17c>)
1000310e:	6813      	ldr	r3, [r2, #0]
10003110:	3b01      	subs	r3, #1
10003112:	6013      	str	r3, [r2, #0]
10003114:	6823      	ldr	r3, [r4, #0]
10003116:	3b01      	subs	r3, #1
10003118:	6023      	str	r3, [r4, #0]
1000311a:	6833      	ldr	r3, [r6, #0]
1000311c:	b10b      	cbz	r3, 10003122 <prvCheckTasksWaitingTermination+0x76>
1000311e:	f7ff fdb7 	bl	10002c90 <vTaskExitCritical.part.0>
10003122:	6b68      	ldr	r0, [r5, #52]	@ 0x34
10003124:	f001 fd26 	bl	10004b74 <vPortFree>
10003128:	4628      	mov	r0, r5
1000312a:	f001 fd23 	bl	10004b74 <vPortFree>
1000312e:	6823      	ldr	r3, [r4, #0]
10003130:	2b00      	cmp	r3, #0
10003132:	d1c7      	bne.n	100030c4 <prvCheckTasksWaitingTermination+0x18>
10003134:	e8bd 83f8 	ldmia.w	sp!, {r3, r4, r5, r6, r7, r8, r9, pc}
10003138:	6833      	ldr	r3, [r6, #0]
1000313a:	2b00      	cmp	r3, #0
1000313c:	d0bf      	beq.n	100030be <prvCheckTasksWaitingTermination+0x12>
1000313e:	f7ff fda7 	bl	10002c90 <vTaskExitCritical.part.0>
10003142:	e7bc      	b.n	100030be <prvCheckTasksWaitingTermination+0x12>
10003144:	f8d9 3000 	ldr.w	r3, [r9]
10003148:	2b00      	cmp	r3, #0
1000314a:	d1d2      	bne.n	100030f2 <prvCheckTasksWaitingTermination+0x46>
1000314c:	f7ff fe82 	bl	10002e54 <prvCheckForRunStateChange>
10003150:	e7cf      	b.n	100030f2 <prvCheckTasksWaitingTermination+0x46>
10003152:	e8d8 2fcf 	ldaexb	r2, [r8]
10003156:	2101      	movs	r1, #1
10003158:	2a00      	cmp	r2, #0
1000315a:	d101      	bne.n	10003160 <prvCheckTasksWaitingTermination+0xb4>
1000315c:	e8c8 1f42 	strexb	r2, r1, [r8]
10003160:	f3bf 8f5f 	dmb	sy
10003164:	2a00      	cmp	r2, #0
10003166:	d132      	bne.n	100031ce <prvCheckTasksWaitingTermination+0x122>
10003168:	4a30      	ldr	r2, [pc, #192]	@ (1000322c <prvCheckTasksWaitingTermination+0x180>)
1000316a:	0059      	lsls	r1, r3, #1
1000316c:	2301      	movs	r3, #1
1000316e:	4830      	ldr	r0, [pc, #192]	@ (10003230 <prvCheckTasksWaitingTermination+0x184>)
10003170:	4411      	add	r1, r2
10003172:	7043      	strb	r3, [r0, #1]
10003174:	704b      	strb	r3, [r1, #1]
10003176:	f04f 4550 	mov.w	r5, #3489660928	@ 0xd0000000
1000317a:	4b2e      	ldr	r3, [pc, #184]	@ (10003234 <prvCheckTasksWaitingTermination+0x188>)
1000317c:	6829      	ldr	r1, [r5, #0]
1000317e:	e8d3 cfcf 	ldaexb	ip, [r3]
10003182:	f05f 0e01 	movs.w	lr, #1
10003186:	f1bc 0f00 	cmp.w	ip, #0
1000318a:	d101      	bne.n	10003190 <prvCheckTasksWaitingTermination+0xe4>
1000318c:	e8c3 ef4c 	strexb	ip, lr, [r3]
10003190:	f3bf 8f5f 	dmb	sy
10003194:	f1bc 0f00 	cmp.w	ip, #0
10003198:	d011      	beq.n	100031be <prvCheckTasksWaitingTermination+0x112>
1000319a:	f812 c011 	ldrb.w	ip, [r2, r1, lsl #1]
1000319e:	f1bc 0f00 	cmp.w	ip, #0
100031a2:	d126      	bne.n	100031f2 <prvCheckTasksWaitingTermination+0x146>
100031a4:	e8d3 cfcf 	ldaexb	ip, [r3]
100031a8:	2501      	movs	r5, #1
100031aa:	f1bc 0f00 	cmp.w	ip, #0
100031ae:	d1f9      	bne.n	100031a4 <prvCheckTasksWaitingTermination+0xf8>
100031b0:	e8c3 5f4c 	strexb	ip, r5, [r3]
100031b4:	f1bc 0f00 	cmp.w	ip, #0
100031b8:	d1f4      	bne.n	100031a4 <prvCheckTasksWaitingTermination+0xf8>
100031ba:	f3bf 8f5f 	dmb	sy
100031be:	2301      	movs	r3, #1
100031c0:	f04f 4550 	mov.w	r5, #3489660928	@ 0xd0000000
100031c4:	7003      	strb	r3, [r0, #0]
100031c6:	f802 3011 	strb.w	r3, [r2, r1, lsl #1]
100031ca:	682b      	ldr	r3, [r5, #0]
100031cc:	e785      	b.n	100030da <prvCheckTasksWaitingTermination+0x2e>
100031ce:	4a17      	ldr	r2, [pc, #92]	@ (1000322c <prvCheckTasksWaitingTermination+0x180>)
100031d0:	0059      	lsls	r1, r3, #1
100031d2:	eb02 0343 	add.w	r3, r2, r3, lsl #1
100031d6:	785b      	ldrb	r3, [r3, #1]
100031d8:	b98b      	cbnz	r3, 100031fe <prvCheckTasksWaitingTermination+0x152>
100031da:	e8d8 0fcf 	ldaexb	r0, [r8]
100031de:	2301      	movs	r3, #1
100031e0:	2800      	cmp	r0, #0
100031e2:	d1fa      	bne.n	100031da <prvCheckTasksWaitingTermination+0x12e>
100031e4:	e8c8 3f40 	strexb	r0, r3, [r8]
100031e8:	2800      	cmp	r0, #0
100031ea:	d1f6      	bne.n	100031da <prvCheckTasksWaitingTermination+0x12e>
100031ec:	f3bf 8f5f 	dmb	sy
100031f0:	e7bc      	b.n	1000316c <prvCheckTasksWaitingTermination+0xc0>
100031f2:	7803      	ldrb	r3, [r0, #0]
100031f4:	3301      	adds	r3, #1
100031f6:	b2db      	uxtb	r3, r3
100031f8:	7003      	strb	r3, [r0, #0]
100031fa:	682b      	ldr	r3, [r5, #0]
100031fc:	e76d      	b.n	100030da <prvCheckTasksWaitingTermination+0x2e>
100031fe:	480c      	ldr	r0, [pc, #48]	@ (10003230 <prvCheckTasksWaitingTermination+0x184>)
10003200:	7843      	ldrb	r3, [r0, #1]
10003202:	3301      	adds	r3, #1
10003204:	b2db      	uxtb	r3, r3
10003206:	7043      	strb	r3, [r0, #1]
10003208:	e7b5      	b.n	10003176 <prvCheckTasksWaitingTermination+0xca>
1000320a:	6833      	ldr	r3, [r6, #0]
1000320c:	2b00      	cmp	r3, #0
1000320e:	d091      	beq.n	10003134 <prvCheckTasksWaitingTermination+0x88>
10003210:	e8bd 43f8 	ldmia.w	sp!, {r3, r4, r5, r6, r7, r8, r9, lr}
10003214:	f7ff bd3c 	b.w	10002c90 <vTaskExitCritical.part.0>
10003218:	20020bb0 	.word	0x20020bb0
1000321c:	20020c50 	.word	0x20020c50
10003220:	20020ba0 	.word	0x20020ba0
10003224:	20020c70 	.word	0x20020c70
10003228:	20020bac 	.word	0x20020bac
1000322c:	20020b98 	.word	0x20020b98
10003230:	20020b9c 	.word	0x20020b9c
10003234:	2000085e 	.word	0x2000085e
10003238:	20020bb4 	.word	0x20020bb4
1000323c:	2000085f 	.word	0x2000085f

10003240 <prvIdleTask>:
10003240:	b508      	push	{r3, lr}
10003242:	f7fe fe2d 	bl	10001ea0 <vPortYield>
10003246:	4c04      	ldr	r4, [pc, #16]	@ (10003258 <prvIdleTask+0x18>)
10003248:	f7ff ff30 	bl	100030ac <prvCheckTasksWaitingTermination>
1000324c:	6823      	ldr	r3, [r4, #0]
1000324e:	2b02      	cmp	r3, #2
10003250:	d9fa      	bls.n	10003248 <prvIdleTask+0x8>
10003252:	f7fe fe25 	bl	10001ea0 <vPortYield>
10003256:	e7f7      	b.n	10003248 <prvIdleTask+0x8>
10003258:	2000090c 	.word	0x2000090c

1000325c <prvAddCurrentTaskToDelayedList>:
1000325c:	e92d 4ff8 	stmdb	sp!, {r3, r4, r5, r6, r7, r8, r9, sl, fp, lr}
10003260:	f04f 4550 	mov.w	r5, #3489660928	@ 0xd0000000
10003264:	4a46      	ldr	r2, [pc, #280]	@ (10003380 <prvAddCurrentTaskToDelayedList+0x124>)
10003266:	4b47      	ldr	r3, [pc, #284]	@ (10003384 <prvAddCurrentTaskToDelayedList+0x128>)
10003268:	4c47      	ldr	r4, [pc, #284]	@ (10003388 <prvAddCurrentTaskToDelayedList+0x12c>)
1000326a:	460f      	mov	r7, r1
1000326c:	f8d4 a000 	ldr.w	sl, [r4]
10003270:	4e46      	ldr	r6, [pc, #280]	@ (1000338c <prvAddCurrentTaskToDelayedList+0x130>)
10003272:	f8d2 8000 	ldr.w	r8, [r2]
10003276:	4604      	mov	r4, r0
10003278:	f8d3 9000 	ldr.w	r9, [r3]
1000327c:	f7fe ffe4 	bl	10002248 <ulSetInterruptMask>
10003280:	682b      	ldr	r3, [r5, #0]
10003282:	f856 b023 	ldr.w	fp, [r6, r3, lsl #2]
10003286:	f7fe ffeb 	bl	10002260 <vClearInterruptMask>
1000328a:	2300      	movs	r3, #0
1000328c:	f88b 3079 	strb.w	r3, [fp, #121]	@ 0x79
10003290:	f7fe ffda 	bl	10002248 <ulSetInterruptMask>
10003294:	682b      	ldr	r3, [r5, #0]
10003296:	f856 b023 	ldr.w	fp, [r6, r3, lsl #2]
1000329a:	f7fe ffe1 	bl	10002260 <vClearInterruptMask>
1000329e:	f10b 0008 	add.w	r0, fp, #8
100032a2:	f7ff f94d 	bl	10002540 <uxListRemove>
100032a6:	1c63      	adds	r3, r4, #1
100032a8:	d100      	bne.n	100032ac <prvAddCurrentTaskToDelayedList+0x50>
100032aa:	bb8f      	cbnz	r7, 10003310 <prvAddCurrentTaskToDelayedList+0xb4>
100032ac:	f04f 4550 	mov.w	r5, #3489660928	@ 0xd0000000
100032b0:	eb1a 0404 	adds.w	r4, sl, r4
100032b4:	bf2c      	ite	cs
100032b6:	2701      	movcs	r7, #1
100032b8:	2700      	movcc	r7, #0
100032ba:	f7fe ffc5 	bl	10002248 <ulSetInterruptMask>
100032be:	682b      	ldr	r3, [r5, #0]
100032c0:	f856 a023 	ldr.w	sl, [r6, r3, lsl #2]
100032c4:	f7fe ffcc 	bl	10002260 <vClearInterruptMask>
100032c8:	f8ca 4008 	str.w	r4, [sl, #8]
100032cc:	b997      	cbnz	r7, 100032f4 <prvAddCurrentTaskToDelayedList+0x98>
100032ce:	f7fe ffbb 	bl	10002248 <ulSetInterruptMask>
100032d2:	682b      	ldr	r3, [r5, #0]
100032d4:	f856 5023 	ldr.w	r5, [r6, r3, lsl #2]
100032d8:	f7fe ffc2 	bl	10002260 <vClearInterruptMask>
100032dc:	4640      	mov	r0, r8
100032de:	f105 0108 	add.w	r1, r5, #8
100032e2:	f7ff f915 	bl	10002510 <vListInsert>
100032e6:	4b2a      	ldr	r3, [pc, #168]	@ (10003390 <prvAddCurrentTaskToDelayedList+0x134>)
100032e8:	681a      	ldr	r2, [r3, #0]
100032ea:	42a2      	cmp	r2, r4
100032ec:	bf88      	it	hi
100032ee:	601c      	strhi	r4, [r3, #0]
100032f0:	e8bd 8ff8 	ldmia.w	sp!, {r3, r4, r5, r6, r7, r8, r9, sl, fp, pc}
100032f4:	f7fe ffa8 	bl	10002248 <ulSetInterruptMask>
100032f8:	682b      	ldr	r3, [r5, #0]
100032fa:	f856 4023 	ldr.w	r4, [r6, r3, lsl #2]
100032fe:	f7fe ffaf 	bl	10002260 <vClearInterruptMask>
10003302:	4648      	mov	r0, r9
10003304:	f104 0108 	add.w	r1, r4, #8
10003308:	e8bd 4ff8 	ldmia.w	sp!, {r3, r4, r5, r6, r7, r8, r9, sl, fp, lr}
1000330c:	f7ff b900 	b.w	10002510 <vListInsert>
10003310:	4c20      	ldr	r4, [pc, #128]	@ (10003394 <prvAddCurrentTaskToDelayedList+0x138>)
10003312:	6867      	ldr	r7, [r4, #4]
10003314:	f7fe ff98 	bl	10002248 <ulSetInterruptMask>
10003318:	682b      	ldr	r3, [r5, #0]
1000331a:	f856 8023 	ldr.w	r8, [r6, r3, lsl #2]
1000331e:	f7fe ff9f 	bl	10002260 <vClearInterruptMask>
10003322:	f8c8 700c 	str.w	r7, [r8, #12]
10003326:	f7fe ff8f 	bl	10002248 <ulSetInterruptMask>
1000332a:	682b      	ldr	r3, [r5, #0]
1000332c:	f856 8023 	ldr.w	r8, [r6, r3, lsl #2]
10003330:	f7fe ff96 	bl	10002260 <vClearInterruptMask>
10003334:	68bb      	ldr	r3, [r7, #8]
10003336:	f8c8 3010 	str.w	r3, [r8, #16]
1000333a:	f7fe ff85 	bl	10002248 <ulSetInterruptMask>
1000333e:	682b      	ldr	r3, [r5, #0]
10003340:	f856 8023 	ldr.w	r8, [r6, r3, lsl #2]
10003344:	f7fe ff8c 	bl	10002260 <vClearInterruptMask>
10003348:	68ba      	ldr	r2, [r7, #8]
1000334a:	f108 0308 	add.w	r3, r8, #8
1000334e:	6053      	str	r3, [r2, #4]
10003350:	f7fe ff7a 	bl	10002248 <ulSetInterruptMask>
10003354:	682b      	ldr	r3, [r5, #0]
10003356:	f856 8023 	ldr.w	r8, [r6, r3, lsl #2]
1000335a:	f7fe ff81 	bl	10002260 <vClearInterruptMask>
1000335e:	f108 0308 	add.w	r3, r8, #8
10003362:	60bb      	str	r3, [r7, #8]
10003364:	f7fe ff70 	bl	10002248 <ulSetInterruptMask>
10003368:	682b      	ldr	r3, [r5, #0]
1000336a:	f856 5023 	ldr.w	r5, [r6, r3, lsl #2]
1000336e:	f7fe ff77 	bl	10002260 <vClearInterruptMask>
10003372:	6823      	ldr	r3, [r4, #0]
10003374:	61ac      	str	r4, [r5, #24]
10003376:	3301      	adds	r3, #1
10003378:	6023      	str	r3, [r4, #0]
1000337a:	e8bd 8ff8 	ldmia.w	sp!, {r3, r4, r5, r6, r7, r8, r9, sl, fp, pc}
1000337e:	bf00      	nop
10003380:	200008fc 	.word	0x200008fc
10003384:	20000904 	.word	0x20000904
10003388:	20020c84 	.word	0x20020c84
1000338c:	200008f0 	.word	0x200008f0
10003390:	20020c28 	.word	0x20020c28
10003394:	20020c5c 	.word	0x20020c5c

10003398 <vTaskCoreAffinitySet>:
10003398:	e92d 41f0 	stmdb	sp!, {r4, r5, r6, r7, r8, lr}
1000339c:	4e64      	ldr	r6, [pc, #400]	@ (10003530 <vTaskCoreAffinitySet+0x198>)
1000339e:	4604      	mov	r4, r0
100033a0:	460d      	mov	r5, r1
100033a2:	f7fe ff51 	bl	10002248 <ulSetInterruptMask>
100033a6:	6833      	ldr	r3, [r6, #0]
100033a8:	b19b      	cbz	r3, 100033d2 <vTaskCoreAffinitySet+0x3a>
100033aa:	f04f 4350 	mov.w	r3, #3489660928	@ 0xd0000000
100033ae:	4a61      	ldr	r2, [pc, #388]	@ (10003534 <vTaskCoreAffinitySet+0x19c>)
100033b0:	681b      	ldr	r3, [r3, #0]
100033b2:	f852 1023 	ldr.w	r1, [r2, r3, lsl #2]
100033b6:	2900      	cmp	r1, #0
100033b8:	d035      	beq.n	10003426 <vTaskCoreAffinitySet+0x8e>
100033ba:	f04f 4050 	mov.w	r0, #3489660928	@ 0xd0000000
100033be:	f852 1023 	ldr.w	r1, [r2, r3, lsl #2]
100033c2:	3101      	adds	r1, #1
100033c4:	f842 1023 	str.w	r1, [r2, r3, lsl #2]
100033c8:	6803      	ldr	r3, [r0, #0]
100033ca:	f852 3023 	ldr.w	r3, [r2, r3, lsl #2]
100033ce:	2b01      	cmp	r3, #1
100033d0:	d016      	beq.n	10003400 <vTaskCoreAffinitySet+0x68>
100033d2:	b1ec      	cbz	r4, 10003410 <vTaskCoreAffinitySet+0x78>
100033d4:	6833      	ldr	r3, [r6, #0]
100033d6:	6862      	ldr	r2, [r4, #4]
100033d8:	6065      	str	r5, [r4, #4]
100033da:	b14b      	cbz	r3, 100033f0 <vTaskCoreAffinitySet+0x58>
100033dc:	6ba3      	ldr	r3, [r4, #56]	@ 0x38
100033de:	2b00      	cmp	r3, #0
100033e0:	db02      	blt.n	100033e8 <vTaskCoreAffinitySet+0x50>
100033e2:	6ba3      	ldr	r3, [r4, #56]	@ 0x38
100033e4:	2b01      	cmp	r3, #1
100033e6:	dd65      	ble.n	100034b4 <vTaskCoreAffinitySet+0x11c>
100033e8:	ea25 0502 	bic.w	r5, r5, r2
100033ec:	07ab      	lsls	r3, r5, #30
100033ee:	d15d      	bne.n	100034ac <vTaskCoreAffinitySet+0x114>
100033f0:	6833      	ldr	r3, [r6, #0]
100033f2:	b11b      	cbz	r3, 100033fc <vTaskCoreAffinitySet+0x64>
100033f4:	e8bd 41f0 	ldmia.w	sp!, {r4, r5, r6, r7, r8, lr}
100033f8:	f7ff bc4a 	b.w	10002c90 <vTaskExitCritical.part.0>
100033fc:	e8bd 81f0 	ldmia.w	sp!, {r4, r5, r6, r7, r8, pc}
10003400:	4b4d      	ldr	r3, [pc, #308]	@ (10003538 <vTaskCoreAffinitySet+0x1a0>)
10003402:	681b      	ldr	r3, [r3, #0]
10003404:	2b00      	cmp	r3, #0
10003406:	d1e4      	bne.n	100033d2 <vTaskCoreAffinitySet+0x3a>
10003408:	f7ff fd24 	bl	10002e54 <prvCheckForRunStateChange>
1000340c:	2c00      	cmp	r4, #0
1000340e:	d1e1      	bne.n	100033d4 <vTaskCoreAffinitySet+0x3c>
10003410:	f7fe ff1a 	bl	10002248 <ulSetInterruptMask>
10003414:	f04f 4250 	mov.w	r2, #3489660928	@ 0xd0000000
10003418:	4b48      	ldr	r3, [pc, #288]	@ (1000353c <vTaskCoreAffinitySet+0x1a4>)
1000341a:	6812      	ldr	r2, [r2, #0]
1000341c:	f853 4022 	ldr.w	r4, [r3, r2, lsl #2]
10003420:	f7fe ff1e 	bl	10002260 <vClearInterruptMask>
10003424:	e7d6      	b.n	100033d4 <vTaskCoreAffinitySet+0x3c>
10003426:	4946      	ldr	r1, [pc, #280]	@ (10003540 <vTaskCoreAffinitySet+0x1a8>)
10003428:	e8d1 0fcf 	ldaexb	r0, [r1]
1000342c:	2701      	movs	r7, #1
1000342e:	2800      	cmp	r0, #0
10003430:	d101      	bne.n	10003436 <vTaskCoreAffinitySet+0x9e>
10003432:	e8c1 7f40 	strexb	r0, r7, [r1]
10003436:	f3bf 8f5f 	dmb	sy
1000343a:	2800      	cmp	r0, #0
1000343c:	d152      	bne.n	100034e4 <vTaskCoreAffinitySet+0x14c>
1000343e:	4841      	ldr	r0, [pc, #260]	@ (10003544 <vTaskCoreAffinitySet+0x1ac>)
10003440:	ea4f 0c43 	mov.w	ip, r3, lsl #1
10003444:	2301      	movs	r3, #1
10003446:	4940      	ldr	r1, [pc, #256]	@ (10003548 <vTaskCoreAffinitySet+0x1b0>)
10003448:	4484      	add	ip, r0
1000344a:	704b      	strb	r3, [r1, #1]
1000344c:	f88c 3001 	strb.w	r3, [ip, #1]
10003450:	f04f 4c50 	mov.w	ip, #3489660928	@ 0xd0000000
10003454:	4b3d      	ldr	r3, [pc, #244]	@ (1000354c <vTaskCoreAffinitySet+0x1b4>)
10003456:	f8dc 7000 	ldr.w	r7, [ip]
1000345a:	e8d3 efcf 	ldaexb	lr, [r3]
1000345e:	f05f 0801 	movs.w	r8, #1
10003462:	f1be 0f00 	cmp.w	lr, #0
10003466:	d101      	bne.n	1000346c <vTaskCoreAffinitySet+0xd4>
10003468:	e8c3 8f4e 	strexb	lr, r8, [r3]
1000346c:	f3bf 8f5f 	dmb	sy
10003470:	f1be 0f00 	cmp.w	lr, #0
10003474:	d012      	beq.n	1000349c <vTaskCoreAffinitySet+0x104>
10003476:	f810 e017 	ldrb.w	lr, [r0, r7, lsl #1]
1000347a:	f1be 0f00 	cmp.w	lr, #0
1000347e:	d149      	bne.n	10003514 <vTaskCoreAffinitySet+0x17c>
10003480:	e8d3 efcf 	ldaexb	lr, [r3]
10003484:	f05f 0c01 	movs.w	ip, #1
10003488:	f1be 0f00 	cmp.w	lr, #0
1000348c:	d1f8      	bne.n	10003480 <vTaskCoreAffinitySet+0xe8>
1000348e:	e8c3 cf4e 	strexb	lr, ip, [r3]
10003492:	f1be 0f00 	cmp.w	lr, #0
10003496:	d1f3      	bne.n	10003480 <vTaskCoreAffinitySet+0xe8>
10003498:	f3bf 8f5f 	dmb	sy
1000349c:	2301      	movs	r3, #1
1000349e:	700b      	strb	r3, [r1, #0]
100034a0:	f800 3017 	strb.w	r3, [r0, r7, lsl #1]
100034a4:	f04f 4350 	mov.w	r3, #3489660928	@ 0xd0000000
100034a8:	681b      	ldr	r3, [r3, #0]
100034aa:	e786      	b.n	100033ba <vTaskCoreAffinitySet+0x22>
100034ac:	4620      	mov	r0, r4
100034ae:	f7ff fb7f 	bl	10002bb0 <prvYieldForTask>
100034b2:	e79d      	b.n	100033f0 <vTaskCoreAffinitySet+0x58>
100034b4:	6ba4      	ldr	r4, [r4, #56]	@ 0x38
100034b6:	40e5      	lsrs	r5, r4
100034b8:	07ea      	lsls	r2, r5, #31
100034ba:	d499      	bmi.n	100033f0 <vTaskCoreAffinitySet+0x58>
100034bc:	f04f 4350 	mov.w	r3, #3489660928	@ 0xd0000000
100034c0:	681b      	ldr	r3, [r3, #0]
100034c2:	429c      	cmp	r4, r3
100034c4:	d021      	beq.n	1000350a <vTaskCoreAffinitySet+0x172>
100034c6:	4d1d      	ldr	r5, [pc, #116]	@ (1000353c <vTaskCoreAffinitySet+0x1a4>)
100034c8:	f855 3024 	ldr.w	r3, [r5, r4, lsl #2]
100034cc:	6b9b      	ldr	r3, [r3, #56]	@ 0x38
100034ce:	3302      	adds	r3, #2
100034d0:	d08e      	beq.n	100033f0 <vTaskCoreAffinitySet+0x58>
100034d2:	4620      	mov	r0, r4
100034d4:	f7fe fe86 	bl	100021e4 <vYieldCore>
100034d8:	f06f 0201 	mvn.w	r2, #1
100034dc:	f855 3024 	ldr.w	r3, [r5, r4, lsl #2]
100034e0:	639a      	str	r2, [r3, #56]	@ 0x38
100034e2:	e785      	b.n	100033f0 <vTaskCoreAffinitySet+0x58>
100034e4:	4817      	ldr	r0, [pc, #92]	@ (10003544 <vTaskCoreAffinitySet+0x1ac>)
100034e6:	ea4f 0c43 	mov.w	ip, r3, lsl #1
100034ea:	eb00 0343 	add.w	r3, r0, r3, lsl #1
100034ee:	785b      	ldrb	r3, [r3, #1]
100034f0:	b9bb      	cbnz	r3, 10003522 <vTaskCoreAffinitySet+0x18a>
100034f2:	e8d1 7fcf 	ldaexb	r7, [r1]
100034f6:	2301      	movs	r3, #1
100034f8:	2f00      	cmp	r7, #0
100034fa:	d1fa      	bne.n	100034f2 <vTaskCoreAffinitySet+0x15a>
100034fc:	e8c1 3f47 	strexb	r7, r3, [r1]
10003500:	2f00      	cmp	r7, #0
10003502:	d1f6      	bne.n	100034f2 <vTaskCoreAffinitySet+0x15a>
10003504:	f3bf 8f5f 	dmb	sy
10003508:	e79c      	b.n	10003444 <vTaskCoreAffinitySet+0xac>
1000350a:	2201      	movs	r2, #1
1000350c:	4b10      	ldr	r3, [pc, #64]	@ (10003550 <vTaskCoreAffinitySet+0x1b8>)
1000350e:	f843 2024 	str.w	r2, [r3, r4, lsl #2]
10003512:	e76d      	b.n	100033f0 <vTaskCoreAffinitySet+0x58>
10003514:	780b      	ldrb	r3, [r1, #0]
10003516:	3301      	adds	r3, #1
10003518:	b2db      	uxtb	r3, r3
1000351a:	700b      	strb	r3, [r1, #0]
1000351c:	f8dc 3000 	ldr.w	r3, [ip]
10003520:	e74b      	b.n	100033ba <vTaskCoreAffinitySet+0x22>
10003522:	4909      	ldr	r1, [pc, #36]	@ (10003548 <vTaskCoreAffinitySet+0x1b0>)
10003524:	784b      	ldrb	r3, [r1, #1]
10003526:	3301      	adds	r3, #1
10003528:	b2db      	uxtb	r3, r3
1000352a:	704b      	strb	r3, [r1, #1]
1000352c:	e790      	b.n	10003450 <vTaskCoreAffinitySet+0xb8>
1000352e:	bf00      	nop
10003530:	20020c50 	.word	0x20020c50
10003534:	20020ba0 	.word	0x20020ba0
10003538:	20020bb4 	.word	0x20020bb4
1000353c:	200008f0 	.word	0x200008f0
10003540:	2000085f 	.word	0x2000085f
10003544:	20020b98 	.word	0x20020b98
10003548:	20020b9c 	.word	0x20020b9c
1000354c:	2000085e 	.word	0x2000085e
10003550:	20020c90 	.word	0x20020c90

10003554 <vTaskSuspendAll>:
10003554:	4b02      	ldr	r3, [pc, #8]	@ (10003560 <vTaskSuspendAll+0xc>)
10003556:	681b      	ldr	r3, [r3, #0]
10003558:	b903      	cbnz	r3, 1000355c <vTaskSuspendAll+0x8>
1000355a:	4770      	bx	lr
1000355c:	f7ff bd2a 	b.w	10002fb4 <vTaskSuspendAll.part.0>
10003560:	20020c50 	.word	0x20020c50

10003564 <xTaskGetTickCount>:
10003564:	4b01      	ldr	r3, [pc, #4]	@ (1000356c <xTaskGetTickCount+0x8>)
10003566:	6818      	ldr	r0, [r3, #0]
10003568:	4770      	bx	lr
1000356a:	bf00      	nop
1000356c:	20020c84 	.word	0x20020c84

10003570 <uxTaskGetNumberOfTasks>:
10003570:	4b01      	ldr	r3, [pc, #4]	@ (10003578 <uxTaskGetNumberOfTasks+0x8>)
10003572:	6818      	ldr	r0, [r3, #0]
10003574:	4770      	bx	lr
10003576:	bf00      	nop
10003578:	20020bac 	.word	0x20020bac

1000357c <xTaskIncrementTick>:
1000357c:	4b81      	ldr	r3, [pc, #516]	@ (10003784 <xTaskIncrementTick+0x208>)
1000357e:	e92d 47f0 	stmdb	sp!, {r4, r5, r6, r7, r8, r9, sl, lr}
10003582:	681b      	ldr	r3, [r3, #0]
10003584:	bb5b      	cbnz	r3, 100035de <xTaskIncrementTick+0x62>
10003586:	4b80      	ldr	r3, [pc, #512]	@ (10003788 <xTaskIncrementTick+0x20c>)
10003588:	681d      	ldr	r5, [r3, #0]
1000358a:	3501      	adds	r5, #1
1000358c:	601d      	str	r5, [r3, #0]
1000358e:	b375      	cbz	r5, 100035ee <xTaskIncrementTick+0x72>
10003590:	f8df 8218 	ldr.w	r8, [pc, #536]	@ 100037ac <xTaskIncrementTick+0x230>
10003594:	f8d8 3000 	ldr.w	r3, [r8]
10003598:	42ab      	cmp	r3, r5
1000359a:	d940      	bls.n	1000361e <xTaskIncrementTick+0xa2>
1000359c:	4c7b      	ldr	r4, [pc, #492]	@ (1000378c <xTaskIncrementTick+0x210>)
1000359e:	4d7c      	ldr	r5, [pc, #496]	@ (10003790 <xTaskIncrementTick+0x214>)
100035a0:	682b      	ldr	r3, [r5, #0]
100035a2:	6b1b      	ldr	r3, [r3, #48]	@ 0x30
100035a4:	eb03 0383 	add.w	r3, r3, r3, lsl #2
100035a8:	f854 3023 	ldr.w	r3, [r4, r3, lsl #2]
100035ac:	2b01      	cmp	r3, #1
100035ae:	686b      	ldr	r3, [r5, #4]
100035b0:	6b1b      	ldr	r3, [r3, #48]	@ 0x30
100035b2:	eb03 0383 	add.w	r3, r3, r3, lsl #2
100035b6:	f854 3023 	ldr.w	r3, [r4, r3, lsl #2]
100035ba:	f240 808f 	bls.w	100036dc <xTaskIncrementTick+0x160>
100035be:	2b01      	cmp	r3, #1
100035c0:	f04f 4350 	mov.w	r3, #3489660928	@ 0xd0000000
100035c4:	681e      	ldr	r6, [r3, #0]
100035c6:	f240 80a3 	bls.w	10003710 <xTaskIncrementTick+0x194>
100035ca:	2e00      	cmp	r6, #0
100035cc:	f000 80cb 	beq.w	10003766 <xTaskIncrementTick+0x1ea>
100035d0:	682b      	ldr	r3, [r5, #0]
100035d2:	6b9b      	ldr	r3, [r3, #56]	@ 0x38
100035d4:	3302      	adds	r3, #2
100035d6:	f000 80ae 	beq.w	10003736 <xTaskIncrementTick+0x1ba>
100035da:	2401      	movs	r4, #1
100035dc:	e09e      	b.n	1000371c <xTaskIncrementTick+0x1a0>
100035de:	2400      	movs	r4, #0
100035e0:	4a6c      	ldr	r2, [pc, #432]	@ (10003794 <xTaskIncrementTick+0x218>)
100035e2:	6813      	ldr	r3, [r2, #0]
100035e4:	3301      	adds	r3, #1
100035e6:	6013      	str	r3, [r2, #0]
100035e8:	4620      	mov	r0, r4
100035ea:	e8bd 87f0 	ldmia.w	sp!, {r4, r5, r6, r7, r8, r9, sl, pc}
100035ee:	4b6a      	ldr	r3, [pc, #424]	@ (10003798 <xTaskIncrementTick+0x21c>)
100035f0:	4a6a      	ldr	r2, [pc, #424]	@ (1000379c <xTaskIncrementTick+0x220>)
100035f2:	6818      	ldr	r0, [r3, #0]
100035f4:	6811      	ldr	r1, [r2, #0]
100035f6:	6019      	str	r1, [r3, #0]
100035f8:	4969      	ldr	r1, [pc, #420]	@ (100037a0 <xTaskIncrementTick+0x224>)
100035fa:	6010      	str	r0, [r2, #0]
100035fc:	680a      	ldr	r2, [r1, #0]
100035fe:	3201      	adds	r2, #1
10003600:	600a      	str	r2, [r1, #0]
10003602:	681a      	ldr	r2, [r3, #0]
10003604:	6812      	ldr	r2, [r2, #0]
10003606:	2a00      	cmp	r2, #0
10003608:	d174      	bne.n	100036f4 <xTaskIncrementTick+0x178>
1000360a:	f04f 33ff 	mov.w	r3, #4294967295
1000360e:	f8df 819c 	ldr.w	r8, [pc, #412]	@ 100037ac <xTaskIncrementTick+0x230>
10003612:	f8c8 3000 	str.w	r3, [r8]
10003616:	f8d8 3000 	ldr.w	r3, [r8]
1000361a:	42ab      	cmp	r3, r5
1000361c:	d8be      	bhi.n	1000359c <xTaskIncrementTick+0x20>
1000361e:	f8df 9178 	ldr.w	r9, [pc, #376]	@ 10003798 <xTaskIncrementTick+0x21c>
10003622:	f8d9 3000 	ldr.w	r3, [r9]
10003626:	681b      	ldr	r3, [r3, #0]
10003628:	2b00      	cmp	r3, #0
1000362a:	f000 809e 	beq.w	1000376a <xTaskIncrementTick+0x1ee>
1000362e:	2600      	movs	r6, #0
10003630:	4c56      	ldr	r4, [pc, #344]	@ (1000378c <xTaskIncrementTick+0x210>)
10003632:	4f5c      	ldr	r7, [pc, #368]	@ (100037a4 <xTaskIncrementTick+0x228>)
10003634:	e044      	b.n	100036c0 <xTaskIncrementTick+0x144>
10003636:	6999      	ldr	r1, [r3, #24]
10003638:	e9d3 2a03 	ldrd	r2, sl, [r3, #12]
1000363c:	f8c2 a008 	str.w	sl, [r2, #8]
10003640:	f8ca 2004 	str.w	r2, [sl, #4]
10003644:	684a      	ldr	r2, [r1, #4]
10003646:	4618      	mov	r0, r3
10003648:	4562      	cmp	r2, ip
1000364a:	680a      	ldr	r2, [r1, #0]
1000364c:	bf08      	it	eq
1000364e:	f8c1 a004 	streq.w	sl, [r1, #4]
10003652:	3a01      	subs	r2, #1
10003654:	619e      	str	r6, [r3, #24]
10003656:	600a      	str	r2, [r1, #0]
10003658:	6ad9      	ldr	r1, [r3, #44]	@ 0x2c
1000365a:	b171      	cbz	r1, 1000367a <xTaskIncrementTick+0xfe>
1000365c:	e9d3 2a08 	ldrd	r2, sl, [r3, #32]
10003660:	f8c2 a008 	str.w	sl, [r2, #8]
10003664:	f8ca 2004 	str.w	r2, [sl, #4]
10003668:	684a      	ldr	r2, [r1, #4]
1000366a:	4572      	cmp	r2, lr
1000366c:	680a      	ldr	r2, [r1, #0]
1000366e:	bf08      	it	eq
10003670:	f8c1 a004 	streq.w	sl, [r1, #4]
10003674:	3a01      	subs	r2, #1
10003676:	62de      	str	r6, [r3, #44]	@ 0x2c
10003678:	600a      	str	r2, [r1, #0]
1000367a:	6b1a      	ldr	r2, [r3, #48]	@ 0x30
1000367c:	f8d7 e000 	ldr.w	lr, [r7]
10003680:	eb02 0182 	add.w	r1, r2, r2, lsl #2
10003684:	4572      	cmp	r2, lr
10003686:	eb04 0e81 	add.w	lr, r4, r1, lsl #2
1000368a:	bf88      	it	hi
1000368c:	603a      	strhi	r2, [r7, #0]
1000368e:	f8de 2004 	ldr.w	r2, [lr, #4]
10003692:	f8d2 a008 	ldr.w	sl, [r2, #8]
10003696:	60da      	str	r2, [r3, #12]
10003698:	f8c3 a010 	str.w	sl, [r3, #16]
1000369c:	f8ca c004 	str.w	ip, [sl, #4]
100036a0:	f8c2 c008 	str.w	ip, [r2, #8]
100036a4:	f854 2021 	ldr.w	r2, [r4, r1, lsl #2]
100036a8:	f8c3 e018 	str.w	lr, [r3, #24]
100036ac:	3201      	adds	r2, #1
100036ae:	f844 2021 	str.w	r2, [r4, r1, lsl #2]
100036b2:	f7ff fa7d 	bl	10002bb0 <prvYieldForTask>
100036b6:	f8d9 3000 	ldr.w	r3, [r9]
100036ba:	681b      	ldr	r3, [r3, #0]
100036bc:	2b00      	cmp	r3, #0
100036be:	d055      	beq.n	1000376c <xTaskIncrementTick+0x1f0>
100036c0:	f8d9 3000 	ldr.w	r3, [r9]
100036c4:	68db      	ldr	r3, [r3, #12]
100036c6:	68db      	ldr	r3, [r3, #12]
100036c8:	689a      	ldr	r2, [r3, #8]
100036ca:	f103 0c08 	add.w	ip, r3, #8
100036ce:	4295      	cmp	r5, r2
100036d0:	f103 0e1c 	add.w	lr, r3, #28
100036d4:	d2af      	bcs.n	10003636 <xTaskIncrementTick+0xba>
100036d6:	f8c8 2000 	str.w	r2, [r8]
100036da:	e760      	b.n	1000359e <xTaskIncrementTick+0x22>
100036dc:	2b01      	cmp	r3, #1
100036de:	d911      	bls.n	10003704 <xTaskIncrementTick+0x188>
100036e0:	f04f 4250 	mov.w	r2, #3489660928	@ 0xd0000000
100036e4:	4b30      	ldr	r3, [pc, #192]	@ (100037a8 <xTaskIncrementTick+0x22c>)
100036e6:	6816      	ldr	r6, [r2, #0]
100036e8:	681b      	ldr	r3, [r3, #0]
100036ea:	b323      	cbz	r3, 10003736 <xTaskIncrementTick+0x1ba>
100036ec:	2e00      	cmp	r6, #0
100036ee:	f47f af6f 	bne.w	100035d0 <xTaskIncrementTick+0x54>
100036f2:	e038      	b.n	10003766 <xTaskIncrementTick+0x1ea>
100036f4:	681b      	ldr	r3, [r3, #0]
100036f6:	f8df 80b4 	ldr.w	r8, [pc, #180]	@ 100037ac <xTaskIncrementTick+0x230>
100036fa:	68db      	ldr	r3, [r3, #12]
100036fc:	681b      	ldr	r3, [r3, #0]
100036fe:	f8c8 3000 	str.w	r3, [r8]
10003702:	e747      	b.n	10003594 <xTaskIncrementTick+0x18>
10003704:	f04f 4150 	mov.w	r1, #3489660928	@ 0xd0000000
10003708:	4b27      	ldr	r3, [pc, #156]	@ (100037a8 <xTaskIncrementTick+0x22c>)
1000370a:	680e      	ldr	r6, [r1, #0]
1000370c:	681a      	ldr	r2, [r3, #0]
1000370e:	b172      	cbz	r2, 1000372e <xTaskIncrementTick+0x1b2>
10003710:	b336      	cbz	r6, 10003760 <xTaskIncrementTick+0x1e4>
10003712:	682b      	ldr	r3, [r5, #0]
10003714:	6b9b      	ldr	r3, [r3, #56]	@ 0x38
10003716:	3302      	adds	r3, #2
10003718:	d008      	beq.n	1000372c <xTaskIncrementTick+0x1b0>
1000371a:	2400      	movs	r4, #0
1000371c:	2000      	movs	r0, #0
1000371e:	f7fe fd61 	bl	100021e4 <vYieldCore>
10003722:	f06f 0201 	mvn.w	r2, #1
10003726:	682b      	ldr	r3, [r5, #0]
10003728:	639a      	str	r2, [r3, #56]	@ 0x38
1000372a:	b924      	cbnz	r4, 10003736 <xTaskIncrementTick+0x1ba>
1000372c:	4b1e      	ldr	r3, [pc, #120]	@ (100037a8 <xTaskIncrementTick+0x22c>)
1000372e:	685c      	ldr	r4, [r3, #4]
10003730:	2c00      	cmp	r4, #0
10003732:	f43f af59 	beq.w	100035e8 <xTaskIncrementTick+0x6c>
10003736:	2e01      	cmp	r6, #1
10003738:	d01d      	beq.n	10003776 <xTaskIncrementTick+0x1fa>
1000373a:	2400      	movs	r4, #0
1000373c:	f04f 4350 	mov.w	r3, #3489660928	@ 0xd0000000
10003740:	681b      	ldr	r3, [r3, #0]
10003742:	2b01      	cmp	r3, #1
10003744:	d01b      	beq.n	1000377e <xTaskIncrementTick+0x202>
10003746:	686b      	ldr	r3, [r5, #4]
10003748:	6b9b      	ldr	r3, [r3, #56]	@ 0x38
1000374a:	3302      	adds	r3, #2
1000374c:	f43f af4c 	beq.w	100035e8 <xTaskIncrementTick+0x6c>
10003750:	2001      	movs	r0, #1
10003752:	f7fe fd47 	bl	100021e4 <vYieldCore>
10003756:	f06f 0201 	mvn.w	r2, #1
1000375a:	686b      	ldr	r3, [r5, #4]
1000375c:	639a      	str	r2, [r3, #56]	@ 0x38
1000375e:	e743      	b.n	100035e8 <xTaskIncrementTick+0x6c>
10003760:	4b11      	ldr	r3, [pc, #68]	@ (100037a8 <xTaskIncrementTick+0x22c>)
10003762:	685b      	ldr	r3, [r3, #4]
10003764:	b13b      	cbz	r3, 10003776 <xTaskIncrementTick+0x1fa>
10003766:	2401      	movs	r4, #1
10003768:	e7e8      	b.n	1000373c <xTaskIncrementTick+0x1c0>
1000376a:	4c08      	ldr	r4, [pc, #32]	@ (1000378c <xTaskIncrementTick+0x210>)
1000376c:	f04f 33ff 	mov.w	r3, #4294967295
10003770:	f8c8 3000 	str.w	r3, [r8]
10003774:	e713      	b.n	1000359e <xTaskIncrementTick+0x22>
10003776:	2401      	movs	r4, #1
10003778:	4620      	mov	r0, r4
1000377a:	e8bd 87f0 	ldmia.w	sp!, {r4, r5, r6, r7, r8, r9, sl, pc}
1000377e:	4a0a      	ldr	r2, [pc, #40]	@ (100037a8 <xTaskIncrementTick+0x22c>)
10003780:	6053      	str	r3, [r2, #4]
10003782:	e731      	b.n	100035e8 <xTaskIncrementTick+0x6c>
10003784:	20020bb4 	.word	0x20020bb4
10003788:	20020c84 	.word	0x20020c84
1000378c:	2000090c 	.word	0x2000090c
10003790:	200008f0 	.word	0x200008f0
10003794:	20020c38 	.word	0x20020c38
10003798:	200008fc 	.word	0x200008fc
1000379c:	20000904 	.word	0x20000904
100037a0:	20020c2c 	.word	0x20020c2c
100037a4:	20020bbc 	.word	0x20020bbc
100037a8:	20020c90 	.word	0x20020c90
100037ac:	20020c28 	.word	0x20020c28

100037b0 <vTaskSwitchContext>:
100037b0:	e92d 4ff8 	stmdb	sp!, {r3, r4, r5, r6, r7, r8, r9, sl, fp, lr}
100037b4:	f04f 4350 	mov.w	r3, #3489660928	@ 0xd0000000
100037b8:	4604      	mov	r4, r0
100037ba:	f8df a2a0 	ldr.w	sl, [pc, #672]	@ 10003a5c <vTaskSwitchContext+0x2ac>
100037be:	681b      	ldr	r3, [r3, #0]
100037c0:	e8da 2fcf 	ldaexb	r2, [sl]
100037c4:	2101      	movs	r1, #1
100037c6:	2a00      	cmp	r2, #0
100037c8:	d101      	bne.n	100037ce <vTaskSwitchContext+0x1e>
100037ca:	e8ca 1f42 	strexb	r2, r1, [sl]
100037ce:	f3bf 8f5f 	dmb	sy
100037d2:	f8df 828c 	ldr.w	r8, [pc, #652]	@ 10003a60 <vTaskSwitchContext+0x2b0>
100037d6:	2a00      	cmp	r2, #0
100037d8:	d14c      	bne.n	10003874 <vTaskSwitchContext+0xc4>
100037da:	005a      	lsls	r2, r3, #1
100037dc:	2301      	movs	r3, #1
100037de:	4e9a      	ldr	r6, [pc, #616]	@ (10003a48 <vTaskSwitchContext+0x298>)
100037e0:	4442      	add	r2, r8
100037e2:	7073      	strb	r3, [r6, #1]
100037e4:	7053      	strb	r3, [r2, #1]
100037e6:	f04f 4350 	mov.w	r3, #3489660928	@ 0xd0000000
100037ea:	f8df 9278 	ldr.w	r9, [pc, #632]	@ 10003a64 <vTaskSwitchContext+0x2b4>
100037ee:	681a      	ldr	r2, [r3, #0]
100037f0:	e8d9 3fcf 	ldaexb	r3, [r9]
100037f4:	2101      	movs	r1, #1
100037f6:	2b00      	cmp	r3, #0
100037f8:	d101      	bne.n	100037fe <vTaskSwitchContext+0x4e>
100037fa:	e8c9 1f43 	strexb	r3, r1, [r9]
100037fe:	f3bf 8f5f 	dmb	sy
10003802:	b17b      	cbz	r3, 10003824 <vTaskSwitchContext+0x74>
10003804:	f818 3012 	ldrb.w	r3, [r8, r2, lsl #1]
10003808:	2b00      	cmp	r3, #0
1000380a:	f040 80b1 	bne.w	10003970 <vTaskSwitchContext+0x1c0>
1000380e:	e8d9 1fcf 	ldaexb	r1, [r9]
10003812:	2301      	movs	r3, #1
10003814:	2900      	cmp	r1, #0
10003816:	d1fa      	bne.n	1000380e <vTaskSwitchContext+0x5e>
10003818:	e8c9 3f41 	strexb	r1, r3, [r9]
1000381c:	2900      	cmp	r1, #0
1000381e:	d1f6      	bne.n	1000380e <vTaskSwitchContext+0x5e>
10003820:	f3bf 8f5f 	dmb	sy
10003824:	2301      	movs	r3, #1
10003826:	7033      	strb	r3, [r6, #0]
10003828:	f808 3012 	strb.w	r3, [r8, r2, lsl #1]
1000382c:	4b87      	ldr	r3, [pc, #540]	@ (10003a4c <vTaskSwitchContext+0x29c>)
1000382e:	681b      	ldr	r3, [r3, #0]
10003830:	2b00      	cmp	r3, #0
10003832:	d031      	beq.n	10003898 <vTaskSwitchContext+0xe8>
10003834:	2101      	movs	r1, #1
10003836:	f04f 4350 	mov.w	r3, #3489660928	@ 0xd0000000
1000383a:	4a85      	ldr	r2, [pc, #532]	@ (10003a50 <vTaskSwitchContext+0x2a0>)
1000383c:	f842 1024 	str.w	r1, [r2, r4, lsl #2]
10003840:	f8d3 c000 	ldr.w	ip, [r3]
10003844:	7833      	ldrb	r3, [r6, #0]
10003846:	3b01      	subs	r3, #1
10003848:	b2db      	uxtb	r3, r3
1000384a:	7033      	strb	r3, [r6, #0]
1000384c:	b91b      	cbnz	r3, 10003856 <vTaskSwitchContext+0xa6>
1000384e:	f808 301c 	strb.w	r3, [r8, ip, lsl #1]
10003852:	e8c9 3f8f 	stlb	r3, [r9]
10003856:	f04f 4250 	mov.w	r2, #3489660928	@ 0xd0000000
1000385a:	7873      	ldrb	r3, [r6, #1]
1000385c:	6812      	ldr	r2, [r2, #0]
1000385e:	3b01      	subs	r3, #1
10003860:	b2db      	uxtb	r3, r3
10003862:	7073      	strb	r3, [r6, #1]
10003864:	b923      	cbnz	r3, 10003870 <vTaskSwitchContext+0xc0>
10003866:	eb08 0242 	add.w	r2, r8, r2, lsl #1
1000386a:	7053      	strb	r3, [r2, #1]
1000386c:	e8ca 3f8f 	stlb	r3, [sl]
10003870:	e8bd 8ff8 	ldmia.w	sp!, {r3, r4, r5, r6, r7, r8, r9, sl, fp, pc}
10003874:	005a      	lsls	r2, r3, #1
10003876:	eb08 0343 	add.w	r3, r8, r3, lsl #1
1000387a:	785b      	ldrb	r3, [r3, #1]
1000387c:	2b00      	cmp	r3, #0
1000387e:	d17c      	bne.n	1000397a <vTaskSwitchContext+0x1ca>
10003880:	e8da 1fcf 	ldaexb	r1, [sl]
10003884:	2301      	movs	r3, #1
10003886:	2900      	cmp	r1, #0
10003888:	d1fa      	bne.n	10003880 <vTaskSwitchContext+0xd0>
1000388a:	e8ca 3f41 	strexb	r1, r3, [sl]
1000388e:	2900      	cmp	r1, #0
10003890:	d1f6      	bne.n	10003880 <vTaskSwitchContext+0xd0>
10003892:	f3bf 8f5f 	dmb	sy
10003896:	e7a1      	b.n	100037dc <vTaskSwitchContext+0x2c>
10003898:	4a6d      	ldr	r2, [pc, #436]	@ (10003a50 <vTaskSwitchContext+0x2a0>)
1000389a:	4d6e      	ldr	r5, [pc, #440]	@ (10003a54 <vTaskSwitchContext+0x2a4>)
1000389c:	f842 3024 	str.w	r3, [r2, r4, lsl #2]
100038a0:	4a6d      	ldr	r2, [pc, #436]	@ (10003a58 <vTaskSwitchContext+0x2a8>)
100038a2:	f8df b1c4 	ldr.w	fp, [pc, #452]	@ 10003a68 <vTaskSwitchContext+0x2b8>
100038a6:	6817      	ldr	r7, [r2, #0]
100038a8:	f855 3024 	ldr.w	r3, [r5, r4, lsl #2]
100038ac:	6999      	ldr	r1, [r3, #24]
100038ae:	f855 3024 	ldr.w	r3, [r5, r4, lsl #2]
100038b2:	6b1b      	ldr	r3, [r3, #48]	@ 0x30
100038b4:	eb03 0383 	add.w	r3, r3, r3, lsl #2
100038b8:	eb0b 0383 	add.w	r3, fp, r3, lsl #2
100038bc:	4299      	cmp	r1, r3
100038be:	d068      	beq.n	10003992 <vTaskSwitchContext+0x1e2>
100038c0:	2001      	movs	r0, #1
100038c2:	eb07 0387 	add.w	r3, r7, r7, lsl #2
100038c6:	eb0b 0383 	add.w	r3, fp, r3, lsl #2
100038ca:	6819      	ldr	r1, [r3, #0]
100038cc:	3308      	adds	r3, #8
100038ce:	40a0      	lsls	r0, r4
100038d0:	b951      	cbnz	r1, 100038e8 <vTaskSwitchContext+0x138>
100038d2:	6811      	ldr	r1, [r2, #0]
100038d4:	3b14      	subs	r3, #20
100038d6:	3901      	subs	r1, #1
100038d8:	6011      	str	r1, [r2, #0]
100038da:	2f00      	cmp	r7, #0
100038dc:	d054      	beq.n	10003988 <vTaskSwitchContext+0x1d8>
100038de:	f853 1c08 	ldr.w	r1, [r3, #-8]
100038e2:	3f01      	subs	r7, #1
100038e4:	2900      	cmp	r1, #0
100038e6:	d0f4      	beq.n	100038d2 <vTaskSwitchContext+0x122>
100038e8:	46b4      	mov	ip, r6
100038ea:	6859      	ldr	r1, [r3, #4]
100038ec:	4299      	cmp	r1, r3
100038ee:	d02d      	beq.n	1000394c <vTaskSwitchContext+0x19c>
100038f0:	46be      	mov	lr, r7
100038f2:	e006      	b.n	10003902 <vTaskSwitchContext+0x152>
100038f4:	f855 6024 	ldr.w	r6, [r5, r4, lsl #2]
100038f8:	42b2      	cmp	r2, r6
100038fa:	d02f      	beq.n	1000395c <vTaskSwitchContext+0x1ac>
100038fc:	6849      	ldr	r1, [r1, #4]
100038fe:	4299      	cmp	r1, r3
10003900:	d023      	beq.n	1000394a <vTaskSwitchContext+0x19a>
10003902:	68ca      	ldr	r2, [r1, #12]
10003904:	6b96      	ldr	r6, [r2, #56]	@ 0x38
10003906:	1c77      	adds	r7, r6, #1
10003908:	d1f4      	bne.n	100038f4 <vTaskSwitchContext+0x144>
1000390a:	6857      	ldr	r7, [r2, #4]
1000390c:	4238      	tst	r0, r7
1000390e:	d0f5      	beq.n	100038fc <vTaskSwitchContext+0x14c>
10003910:	4663      	mov	r3, ip
10003912:	4694      	mov	ip, r2
10003914:	4632      	mov	r2, r6
10003916:	461e      	mov	r6, r3
10003918:	f04f 4350 	mov.w	r3, #3489660928	@ 0xd0000000
1000391c:	f855 1024 	ldr.w	r1, [r5, r4, lsl #2]
10003920:	638a      	str	r2, [r1, #56]	@ 0x38
10003922:	f855 1024 	ldr.w	r1, [r5, r4, lsl #2]
10003926:	f8cc 4038 	str.w	r4, [ip, #56]	@ 0x38
1000392a:	f845 c024 	str.w	ip, [r5, r4, lsl #2]
1000392e:	f8d3 c000 	ldr.w	ip, [r3]
10003932:	b139      	cbz	r1, 10003944 <vTaskSwitchContext+0x194>
10003934:	6b08      	ldr	r0, [r1, #48]	@ 0x30
10003936:	698b      	ldr	r3, [r1, #24]
10003938:	eb00 0780 	add.w	r7, r0, r0, lsl #2
1000393c:	eb0b 0b87 	add.w	fp, fp, r7, lsl #2
10003940:	455b      	cmp	r3, fp
10003942:	d039      	beq.n	100039b8 <vTaskSwitchContext+0x208>
10003944:	f855 302c 	ldr.w	r3, [r5, ip, lsl #2]
10003948:	e77c      	b.n	10003844 <vTaskSwitchContext+0x94>
1000394a:	4677      	mov	r7, lr
1000394c:	3b14      	subs	r3, #20
1000394e:	b1d7      	cbz	r7, 10003986 <vTaskSwitchContext+0x1d6>
10003950:	f853 2c08 	ldr.w	r2, [r3, #-8]
10003954:	3f01      	subs	r7, #1
10003956:	2a00      	cmp	r2, #0
10003958:	d0f8      	beq.n	1000394c <vTaskSwitchContext+0x19c>
1000395a:	e7c6      	b.n	100038ea <vTaskSwitchContext+0x13a>
1000395c:	6856      	ldr	r6, [r2, #4]
1000395e:	4230      	tst	r0, r6
10003960:	d0cc      	beq.n	100038fc <vTaskSwitchContext+0x14c>
10003962:	f04f 4350 	mov.w	r3, #3489660928	@ 0xd0000000
10003966:	6394      	str	r4, [r2, #56]	@ 0x38
10003968:	4666      	mov	r6, ip
1000396a:	f8d3 c000 	ldr.w	ip, [r3]
1000396e:	e7e9      	b.n	10003944 <vTaskSwitchContext+0x194>
10003970:	7833      	ldrb	r3, [r6, #0]
10003972:	3301      	adds	r3, #1
10003974:	b2db      	uxtb	r3, r3
10003976:	7033      	strb	r3, [r6, #0]
10003978:	e758      	b.n	1000382c <vTaskSwitchContext+0x7c>
1000397a:	4e33      	ldr	r6, [pc, #204]	@ (10003a48 <vTaskSwitchContext+0x298>)
1000397c:	7873      	ldrb	r3, [r6, #1]
1000397e:	3301      	adds	r3, #1
10003980:	b2db      	uxtb	r3, r3
10003982:	7073      	strb	r3, [r6, #1]
10003984:	e72f      	b.n	100037e6 <vTaskSwitchContext+0x36>
10003986:	4666      	mov	r6, ip
10003988:	f04f 4350 	mov.w	r3, #3489660928	@ 0xd0000000
1000398c:	f8d3 c000 	ldr.w	ip, [r3]
10003990:	e7d8      	b.n	10003944 <vTaskSwitchContext+0x194>
10003992:	f855 0024 	ldr.w	r0, [r5, r4, lsl #2]
10003996:	3008      	adds	r0, #8
10003998:	f7fe fdd2 	bl	10002540 <uxListRemove>
1000399c:	f855 3024 	ldr.w	r3, [r5, r4, lsl #2]
100039a0:	f855 1024 	ldr.w	r1, [r5, r4, lsl #2]
100039a4:	6b18      	ldr	r0, [r3, #48]	@ 0x30
100039a6:	3108      	adds	r1, #8
100039a8:	eb00 0080 	add.w	r0, r0, r0, lsl #2
100039ac:	eb0b 0080 	add.w	r0, fp, r0, lsl #2
100039b0:	f7fe fda0 	bl	100024f4 <vListInsertEnd>
100039b4:	4a28      	ldr	r2, [pc, #160]	@ (10003a58 <vTaskSwitchContext+0x2a8>)
100039b6:	e783      	b.n	100038c0 <vTaskSwitchContext+0x110>
100039b8:	684b      	ldr	r3, [r1, #4]
100039ba:	6bc9      	ldr	r1, [r1, #60]	@ 0x3c
100039bc:	f001 0101 	and.w	r1, r1, #1
100039c0:	1a41      	subs	r1, r0, r1
100039c2:	fa23 f004 	lsr.w	r0, r3, r4
100039c6:	07c7      	lsls	r7, r0, #31
100039c8:	d504      	bpl.n	100039d4 <vTaskSwitchContext+0x224>
100039ca:	f855 0024 	ldr.w	r0, [r5, r4, lsl #2]
100039ce:	6840      	ldr	r0, [r0, #4]
100039d0:	ea23 0300 	bic.w	r3, r3, r0
100039d4:	079c      	lsls	r4, r3, #30
100039d6:	f003 0003 	and.w	r0, r3, #3
100039da:	d564      	bpl.n	10003aa6 <vTaskSwitchContext+0x2f6>
100039dc:	6868      	ldr	r0, [r5, #4]
100039de:	686c      	ldr	r4, [r5, #4]
100039e0:	6b00      	ldr	r0, [r0, #48]	@ 0x30
100039e2:	6be4      	ldr	r4, [r4, #60]	@ 0x3c
100039e4:	f003 0301 	and.w	r3, r3, #1
100039e8:	f004 0401 	and.w	r4, r4, #1
100039ec:	1b00      	subs	r0, r0, r4
100039ee:	4281      	cmp	r1, r0
100039f0:	dc3c      	bgt.n	10003a6c <vTaskSwitchContext+0x2bc>
100039f2:	2b00      	cmp	r3, #0
100039f4:	d0a6      	beq.n	10003944 <vTaskSwitchContext+0x194>
100039f6:	682b      	ldr	r3, [r5, #0]
100039f8:	6828      	ldr	r0, [r5, #0]
100039fa:	6b1b      	ldr	r3, [r3, #48]	@ 0x30
100039fc:	6bc0      	ldr	r0, [r0, #60]	@ 0x3c
100039fe:	f000 0001 	and.w	r0, r0, #1
10003a02:	1a1b      	subs	r3, r3, r0
10003a04:	4299      	cmp	r1, r3
10003a06:	dd9d      	ble.n	10003944 <vTaskSwitchContext+0x194>
10003a08:	682b      	ldr	r3, [r5, #0]
10003a0a:	6b9b      	ldr	r3, [r3, #56]	@ 0x38
10003a0c:	2b00      	cmp	r3, #0
10003a0e:	db99      	blt.n	10003944 <vTaskSwitchContext+0x194>
10003a10:	682b      	ldr	r3, [r5, #0]
10003a12:	6b9b      	ldr	r3, [r3, #56]	@ 0x38
10003a14:	2b01      	cmp	r3, #1
10003a16:	dd4e      	ble.n	10003ab6 <vTaskSwitchContext+0x306>
10003a18:	3201      	adds	r2, #1
10003a1a:	d093      	beq.n	10003944 <vTaskSwitchContext+0x194>
10003a1c:	2401      	movs	r4, #1
10003a1e:	4564      	cmp	r4, ip
10003a20:	d044      	beq.n	10003aac <vTaskSwitchContext+0x2fc>
10003a22:	f855 3024 	ldr.w	r3, [r5, r4, lsl #2]
10003a26:	6b9b      	ldr	r3, [r3, #56]	@ 0x38
10003a28:	3302      	adds	r3, #2
10003a2a:	d08b      	beq.n	10003944 <vTaskSwitchContext+0x194>
10003a2c:	4620      	mov	r0, r4
10003a2e:	f7fe fbd9 	bl	100021e4 <vYieldCore>
10003a32:	f06f 0101 	mvn.w	r1, #1
10003a36:	f04f 4350 	mov.w	r3, #3489660928	@ 0xd0000000
10003a3a:	f855 2024 	ldr.w	r2, [r5, r4, lsl #2]
10003a3e:	6391      	str	r1, [r2, #56]	@ 0x38
10003a40:	f8d3 c000 	ldr.w	ip, [r3]
10003a44:	e77e      	b.n	10003944 <vTaskSwitchContext+0x194>
10003a46:	bf00      	nop
10003a48:	20020b9c 	.word	0x20020b9c
10003a4c:	20020bb4 	.word	0x20020bb4
10003a50:	20020c90 	.word	0x20020c90
10003a54:	200008f0 	.word	0x200008f0
10003a58:	20020bbc 	.word	0x20020bbc
10003a5c:	2000085f 	.word	0x2000085f
10003a60:	20020b98 	.word	0x20020b98
10003a64:	2000085e 	.word	0x2000085e
10003a68:	2000090c 	.word	0x2000090c
10003a6c:	686c      	ldr	r4, [r5, #4]
10003a6e:	6ba4      	ldr	r4, [r4, #56]	@ 0x38
10003a70:	2c00      	cmp	r4, #0
10003a72:	dbbe      	blt.n	100039f2 <vTaskSwitchContext+0x242>
10003a74:	686c      	ldr	r4, [r5, #4]
10003a76:	6ba4      	ldr	r4, [r4, #56]	@ 0x38
10003a78:	2c01      	cmp	r4, #1
10003a7a:	dcba      	bgt.n	100039f2 <vTaskSwitchContext+0x242>
10003a7c:	4c10      	ldr	r4, [pc, #64]	@ (10003ac0 <vTaskSwitchContext+0x310>)
10003a7e:	6864      	ldr	r4, [r4, #4]
10003a80:	2c00      	cmp	r4, #0
10003a82:	d1b6      	bne.n	100039f2 <vTaskSwitchContext+0x242>
10003a84:	2b00      	cmp	r3, #0
10003a86:	d0c9      	beq.n	10003a1c <vTaskSwitchContext+0x26c>
10003a88:	682b      	ldr	r3, [r5, #0]
10003a8a:	6829      	ldr	r1, [r5, #0]
10003a8c:	6b1b      	ldr	r3, [r3, #48]	@ 0x30
10003a8e:	6bc9      	ldr	r1, [r1, #60]	@ 0x3c
10003a90:	f001 0101 	and.w	r1, r1, #1
10003a94:	1a5b      	subs	r3, r3, r1
10003a96:	4298      	cmp	r0, r3
10003a98:	ddc0      	ble.n	10003a1c <vTaskSwitchContext+0x26c>
10003a9a:	682b      	ldr	r3, [r5, #0]
10003a9c:	6b9b      	ldr	r3, [r3, #56]	@ 0x38
10003a9e:	2b00      	cmp	r3, #0
10003aa0:	dbbc      	blt.n	10003a1c <vTaskSwitchContext+0x26c>
10003aa2:	2201      	movs	r2, #1
10003aa4:	e7b4      	b.n	10003a10 <vTaskSwitchContext+0x260>
10003aa6:	2800      	cmp	r0, #0
10003aa8:	d1a5      	bne.n	100039f6 <vTaskSwitchContext+0x246>
10003aaa:	e74b      	b.n	10003944 <vTaskSwitchContext+0x194>
10003aac:	2301      	movs	r3, #1
10003aae:	4a04      	ldr	r2, [pc, #16]	@ (10003ac0 <vTaskSwitchContext+0x310>)
10003ab0:	f842 302c 	str.w	r3, [r2, ip, lsl #2]
10003ab4:	e768      	b.n	10003988 <vTaskSwitchContext+0x1d8>
10003ab6:	4b02      	ldr	r3, [pc, #8]	@ (10003ac0 <vTaskSwitchContext+0x310>)
10003ab8:	681c      	ldr	r4, [r3, #0]
10003aba:	2c00      	cmp	r4, #0
10003abc:	d0af      	beq.n	10003a1e <vTaskSwitchContext+0x26e>
10003abe:	e7ab      	b.n	10003a18 <vTaskSwitchContext+0x268>
10003ac0:	20020c90 	.word	0x20020c90

10003ac4 <vTaskPlaceOnEventList>:
10003ac4:	b570      	push	{r4, r5, r6, lr}
10003ac6:	460c      	mov	r4, r1
10003ac8:	4605      	mov	r5, r0
10003aca:	f7fe fbbd 	bl	10002248 <ulSetInterruptMask>
10003ace:	f04f 4250 	mov.w	r2, #3489660928	@ 0xd0000000
10003ad2:	4b08      	ldr	r3, [pc, #32]	@ (10003af4 <vTaskPlaceOnEventList+0x30>)
10003ad4:	6812      	ldr	r2, [r2, #0]
10003ad6:	f853 6022 	ldr.w	r6, [r3, r2, lsl #2]
10003ada:	f7fe fbc1 	bl	10002260 <vClearInterruptMask>
10003ade:	4628      	mov	r0, r5
10003ae0:	f106 011c 	add.w	r1, r6, #28
10003ae4:	f7fe fd14 	bl	10002510 <vListInsert>
10003ae8:	4620      	mov	r0, r4
10003aea:	e8bd 4070 	ldmia.w	sp!, {r4, r5, r6, lr}
10003aee:	2101      	movs	r1, #1
10003af0:	f7ff bbb4 	b.w	1000325c <prvAddCurrentTaskToDelayedList>
10003af4:	200008f0 	.word	0x200008f0

10003af8 <vTaskPlaceOnUnorderedEventList>:
10003af8:	e92d 43f8 	stmdb	sp!, {r3, r4, r5, r6, r7, r8, r9, lr}
10003afc:	f04f 4650 	mov.w	r6, #3489660928	@ 0xd0000000
10003b00:	460f      	mov	r7, r1
10003b02:	4604      	mov	r4, r0
10003b04:	4690      	mov	r8, r2
10003b06:	4d23      	ldr	r5, [pc, #140]	@ (10003b94 <vTaskPlaceOnUnorderedEventList+0x9c>)
10003b08:	f7fe fb9e 	bl	10002248 <ulSetInterruptMask>
10003b0c:	6833      	ldr	r3, [r6, #0]
10003b0e:	f047 4700 	orr.w	r7, r7, #2147483648	@ 0x80000000
10003b12:	f855 9023 	ldr.w	r9, [r5, r3, lsl #2]
10003b16:	f7fe fba3 	bl	10002260 <vClearInterruptMask>
10003b1a:	f8c9 701c 	str.w	r7, [r9, #28]
10003b1e:	6867      	ldr	r7, [r4, #4]
10003b20:	f7fe fb92 	bl	10002248 <ulSetInterruptMask>
10003b24:	6833      	ldr	r3, [r6, #0]
10003b26:	f855 9023 	ldr.w	r9, [r5, r3, lsl #2]
10003b2a:	f7fe fb99 	bl	10002260 <vClearInterruptMask>
10003b2e:	f8c9 7020 	str.w	r7, [r9, #32]
10003b32:	f7fe fb89 	bl	10002248 <ulSetInterruptMask>
10003b36:	6833      	ldr	r3, [r6, #0]
10003b38:	f855 9023 	ldr.w	r9, [r5, r3, lsl #2]
10003b3c:	f7fe fb90 	bl	10002260 <vClearInterruptMask>
10003b40:	68bb      	ldr	r3, [r7, #8]
10003b42:	f8c9 3024 	str.w	r3, [r9, #36]	@ 0x24
10003b46:	f7fe fb7f 	bl	10002248 <ulSetInterruptMask>
10003b4a:	6833      	ldr	r3, [r6, #0]
10003b4c:	f855 9023 	ldr.w	r9, [r5, r3, lsl #2]
10003b50:	f7fe fb86 	bl	10002260 <vClearInterruptMask>
10003b54:	68ba      	ldr	r2, [r7, #8]
10003b56:	f109 031c 	add.w	r3, r9, #28
10003b5a:	6053      	str	r3, [r2, #4]
10003b5c:	f7fe fb74 	bl	10002248 <ulSetInterruptMask>
10003b60:	6833      	ldr	r3, [r6, #0]
10003b62:	f855 9023 	ldr.w	r9, [r5, r3, lsl #2]
10003b66:	f7fe fb7b 	bl	10002260 <vClearInterruptMask>
10003b6a:	f109 031c 	add.w	r3, r9, #28
10003b6e:	60bb      	str	r3, [r7, #8]
10003b70:	f7fe fb6a 	bl	10002248 <ulSetInterruptMask>
10003b74:	6833      	ldr	r3, [r6, #0]
10003b76:	f855 5023 	ldr.w	r5, [r5, r3, lsl #2]
10003b7a:	f7fe fb71 	bl	10002260 <vClearInterruptMask>
10003b7e:	2101      	movs	r1, #1
10003b80:	6823      	ldr	r3, [r4, #0]
10003b82:	4640      	mov	r0, r8
10003b84:	440b      	add	r3, r1
10003b86:	62ec      	str	r4, [r5, #44]	@ 0x2c
10003b88:	6023      	str	r3, [r4, #0]
10003b8a:	e8bd 43f8 	ldmia.w	sp!, {r3, r4, r5, r6, r7, r8, r9, lr}
10003b8e:	f7ff bb65 	b.w	1000325c <prvAddCurrentTaskToDelayedList>
10003b92:	bf00      	nop
10003b94:	200008f0 	.word	0x200008f0

10003b98 <vTaskPlaceOnEventListRestricted>:
10003b98:	e92d 47f0 	stmdb	sp!, {r4, r5, r6, r7, r8, r9, sl, lr}
10003b9c:	f04f 4650 	mov.w	r6, #3489660928	@ 0xd0000000
10003ba0:	4604      	mov	r4, r0
10003ba2:	4617      	mov	r7, r2
10003ba4:	4689      	mov	r9, r1
10003ba6:	f8d0 8004 	ldr.w	r8, [r0, #4]
10003baa:	4d21      	ldr	r5, [pc, #132]	@ (10003c30 <vTaskPlaceOnEventListRestricted+0x98>)
10003bac:	f7fe fb4c 	bl	10002248 <ulSetInterruptMask>
10003bb0:	6833      	ldr	r3, [r6, #0]
10003bb2:	f855 a023 	ldr.w	sl, [r5, r3, lsl #2]
10003bb6:	f7fe fb53 	bl	10002260 <vClearInterruptMask>
10003bba:	f8ca 8020 	str.w	r8, [sl, #32]
10003bbe:	f7fe fb43 	bl	10002248 <ulSetInterruptMask>
10003bc2:	6833      	ldr	r3, [r6, #0]
10003bc4:	f855 a023 	ldr.w	sl, [r5, r3, lsl #2]
10003bc8:	f7fe fb4a 	bl	10002260 <vClearInterruptMask>
10003bcc:	f8d8 3008 	ldr.w	r3, [r8, #8]
10003bd0:	f8ca 3024 	str.w	r3, [sl, #36]	@ 0x24
10003bd4:	f7fe fb38 	bl	10002248 <ulSetInterruptMask>
10003bd8:	6833      	ldr	r3, [r6, #0]
10003bda:	f855 a023 	ldr.w	sl, [r5, r3, lsl #2]
10003bde:	f7fe fb3f 	bl	10002260 <vClearInterruptMask>
10003be2:	f8d8 2008 	ldr.w	r2, [r8, #8]
10003be6:	f10a 031c 	add.w	r3, sl, #28
10003bea:	6053      	str	r3, [r2, #4]
10003bec:	f7fe fb2c 	bl	10002248 <ulSetInterruptMask>
10003bf0:	6833      	ldr	r3, [r6, #0]
10003bf2:	f855 a023 	ldr.w	sl, [r5, r3, lsl #2]
10003bf6:	f7fe fb33 	bl	10002260 <vClearInterruptMask>
10003bfa:	f10a 031c 	add.w	r3, sl, #28
10003bfe:	f8c8 3008 	str.w	r3, [r8, #8]
10003c02:	f7fe fb21 	bl	10002248 <ulSetInterruptMask>
10003c06:	6833      	ldr	r3, [r6, #0]
10003c08:	f855 5023 	ldr.w	r5, [r5, r3, lsl #2]
10003c0c:	f7fe fb28 	bl	10002260 <vClearInterruptMask>
10003c10:	6823      	ldr	r3, [r4, #0]
10003c12:	2f00      	cmp	r7, #0
10003c14:	f103 0301 	add.w	r3, r3, #1
10003c18:	62ec      	str	r4, [r5, #44]	@ 0x2c
10003c1a:	4639      	mov	r1, r7
10003c1c:	bf08      	it	eq
10003c1e:	4648      	moveq	r0, r9
10003c20:	6023      	str	r3, [r4, #0]
10003c22:	bf18      	it	ne
10003c24:	f04f 30ff 	movne.w	r0, #4294967295
10003c28:	e8bd 47f0 	ldmia.w	sp!, {r4, r5, r6, r7, r8, r9, sl, lr}
10003c2c:	f7ff bb16 	b.w	1000325c <prvAddCurrentTaskToDelayedList>
10003c30:	200008f0 	.word	0x200008f0

10003c34 <xTaskRemoveFromEventList>:
10003c34:	b570      	push	{r4, r5, r6, lr}
10003c36:	2500      	movs	r5, #0
10003c38:	68c3      	ldr	r3, [r0, #12]
10003c3a:	68d8      	ldr	r0, [r3, #12]
10003c3c:	6ac3      	ldr	r3, [r0, #44]	@ 0x2c
10003c3e:	e9d0 4208 	ldrd	r4, r2, [r0, #32]
10003c42:	60a2      	str	r2, [r4, #8]
10003c44:	6054      	str	r4, [r2, #4]
10003c46:	685c      	ldr	r4, [r3, #4]
10003c48:	f100 011c 	add.w	r1, r0, #28
10003c4c:	428c      	cmp	r4, r1
10003c4e:	4c24      	ldr	r4, [pc, #144]	@ (10003ce0 <xTaskRemoveFromEventList+0xac>)
10003c50:	bf08      	it	eq
10003c52:	605a      	streq	r2, [r3, #4]
10003c54:	681a      	ldr	r2, [r3, #0]
10003c56:	6824      	ldr	r4, [r4, #0]
10003c58:	3a01      	subs	r2, #1
10003c5a:	62c5      	str	r5, [r0, #44]	@ 0x2c
10003c5c:	601a      	str	r2, [r3, #0]
10003c5e:	2c00      	cmp	r4, #0
10003c60:	d132      	bne.n	10003cc8 <xTaskRemoveFromEventList+0x94>
10003c62:	e9d0 1203 	ldrd	r1, r2, [r0, #12]
10003c66:	6983      	ldr	r3, [r0, #24]
10003c68:	608a      	str	r2, [r1, #8]
10003c6a:	6051      	str	r1, [r2, #4]
10003c6c:	6859      	ldr	r1, [r3, #4]
10003c6e:	f100 0508 	add.w	r5, r0, #8
10003c72:	42a9      	cmp	r1, r5
10003c74:	bf08      	it	eq
10003c76:	605a      	streq	r2, [r3, #4]
10003c78:	681a      	ldr	r2, [r3, #0]
10003c7a:	491a      	ldr	r1, [pc, #104]	@ (10003ce4 <xTaskRemoveFromEventList+0xb0>)
10003c7c:	3a01      	subs	r2, #1
10003c7e:	601a      	str	r2, [r3, #0]
10003c80:	6b03      	ldr	r3, [r0, #48]	@ 0x30
10003c82:	680a      	ldr	r2, [r1, #0]
10003c84:	4293      	cmp	r3, r2
10003c86:	4a18      	ldr	r2, [pc, #96]	@ (10003ce8 <xTaskRemoveFromEventList+0xb4>)
10003c88:	bf88      	it	hi
10003c8a:	600b      	strhi	r3, [r1, #0]
10003c8c:	eb03 0383 	add.w	r3, r3, r3, lsl #2
10003c90:	ea4f 0c83 	mov.w	ip, r3, lsl #2
10003c94:	eb02 0383 	add.w	r3, r2, r3, lsl #2
10003c98:	685c      	ldr	r4, [r3, #4]
10003c9a:	f852 100c 	ldr.w	r1, [r2, ip]
10003c9e:	68a6      	ldr	r6, [r4, #8]
10003ca0:	3101      	adds	r1, #1
10003ca2:	60c4      	str	r4, [r0, #12]
10003ca4:	6106      	str	r6, [r0, #16]
10003ca6:	6075      	str	r5, [r6, #4]
10003ca8:	60a5      	str	r5, [r4, #8]
10003caa:	6183      	str	r3, [r0, #24]
10003cac:	f842 100c 	str.w	r1, [r2, ip]
10003cb0:	f7fe ff7e 	bl	10002bb0 <prvYieldForTask>
10003cb4:	f04f 4250 	mov.w	r2, #3489660928	@ 0xd0000000
10003cb8:	4b0c      	ldr	r3, [pc, #48]	@ (10003cec <xTaskRemoveFromEventList+0xb8>)
10003cba:	6812      	ldr	r2, [r2, #0]
10003cbc:	f853 0022 	ldr.w	r0, [r3, r2, lsl #2]
10003cc0:	3800      	subs	r0, #0
10003cc2:	bf18      	it	ne
10003cc4:	2001      	movne	r0, #1
10003cc6:	bd70      	pop	{r4, r5, r6, pc}
10003cc8:	4b09      	ldr	r3, [pc, #36]	@ (10003cf0 <xTaskRemoveFromEventList+0xbc>)
10003cca:	685c      	ldr	r4, [r3, #4]
10003ccc:	68a2      	ldr	r2, [r4, #8]
10003cce:	e9c0 4208 	strd	r4, r2, [r0, #32]
10003cd2:	6051      	str	r1, [r2, #4]
10003cd4:	681a      	ldr	r2, [r3, #0]
10003cd6:	60a1      	str	r1, [r4, #8]
10003cd8:	3201      	adds	r2, #1
10003cda:	62c3      	str	r3, [r0, #44]	@ 0x2c
10003cdc:	601a      	str	r2, [r3, #0]
10003cde:	e7e7      	b.n	10003cb0 <xTaskRemoveFromEventList+0x7c>
10003ce0:	20020bb4 	.word	0x20020bb4
10003ce4:	20020bbc 	.word	0x20020bbc
10003ce8:	2000090c 	.word	0x2000090c
10003cec:	20020c90 	.word	0x20020c90
10003cf0:	20020c3c 	.word	0x20020c3c

10003cf4 <vTaskInternalSetTimeOutState>:
10003cf4:	4a03      	ldr	r2, [pc, #12]	@ (10003d04 <vTaskInternalSetTimeOutState+0x10>)
10003cf6:	4b04      	ldr	r3, [pc, #16]	@ (10003d08 <vTaskInternalSetTimeOutState+0x14>)
10003cf8:	6812      	ldr	r2, [r2, #0]
10003cfa:	681b      	ldr	r3, [r3, #0]
10003cfc:	e9c0 2300 	strd	r2, r3, [r0]
10003d00:	4770      	bx	lr
10003d02:	bf00      	nop
10003d04:	20020c2c 	.word	0x20020c2c
10003d08:	20020c84 	.word	0x20020c84

10003d0c <vTaskMissedYield>:
10003d0c:	f04f 4250 	mov.w	r2, #3489660928	@ 0xd0000000
10003d10:	2101      	movs	r1, #1
10003d12:	4b02      	ldr	r3, [pc, #8]	@ (10003d1c <vTaskMissedYield+0x10>)
10003d14:	6812      	ldr	r2, [r2, #0]
10003d16:	f843 1022 	str.w	r1, [r3, r2, lsl #2]
10003d1a:	4770      	bx	lr
10003d1c:	20020c90 	.word	0x20020c90

10003d20 <xTaskGetCurrentTaskHandle>:
10003d20:	b510      	push	{r4, lr}
10003d22:	f7fe fa91 	bl	10002248 <ulSetInterruptMask>
10003d26:	f04f 4250 	mov.w	r2, #3489660928	@ 0xd0000000
10003d2a:	4b04      	ldr	r3, [pc, #16]	@ (10003d3c <xTaskGetCurrentTaskHandle+0x1c>)
10003d2c:	6812      	ldr	r2, [r2, #0]
10003d2e:	f853 4022 	ldr.w	r4, [r3, r2, lsl #2]
10003d32:	f7fe fa95 	bl	10002260 <vClearInterruptMask>
10003d36:	4620      	mov	r0, r4
10003d38:	bd10      	pop	{r4, pc}
10003d3a:	bf00      	nop
10003d3c:	200008f0 	.word	0x200008f0

10003d40 <xTaskPriorityDisinherit>:
10003d40:	b158      	cbz	r0, 10003d5a <xTaskPriorityDisinherit+0x1a>
10003d42:	6dc3      	ldr	r3, [r0, #92]	@ 0x5c
10003d44:	6b01      	ldr	r1, [r0, #48]	@ 0x30
10003d46:	6d82      	ldr	r2, [r0, #88]	@ 0x58
10003d48:	3b01      	subs	r3, #1
10003d4a:	4291      	cmp	r1, r2
10003d4c:	b570      	push	{r4, r5, r6, lr}
10003d4e:	4604      	mov	r4, r0
10003d50:	65c3      	str	r3, [r0, #92]	@ 0x5c
10003d52:	d000      	beq.n	10003d56 <xTaskPriorityDisinherit+0x16>
10003d54:	b11b      	cbz	r3, 10003d5e <xTaskPriorityDisinherit+0x1e>
10003d56:	2000      	movs	r0, #0
10003d58:	bd70      	pop	{r4, r5, r6, pc}
10003d5a:	2000      	movs	r0, #0
10003d5c:	4770      	bx	lr
10003d5e:	f100 0508 	add.w	r5, r0, #8
10003d62:	4628      	mov	r0, r5
10003d64:	f7fe fbec 	bl	10002540 <uxListRemove>
10003d68:	4a20      	ldr	r2, [pc, #128]	@ (10003dec <xTaskPriorityDisinherit+0xac>)
10003d6a:	6da3      	ldr	r3, [r4, #88]	@ 0x58
10003d6c:	6811      	ldr	r1, [r2, #0]
10003d6e:	6323      	str	r3, [r4, #48]	@ 0x30
10003d70:	428b      	cmp	r3, r1
10003d72:	bf88      	it	hi
10003d74:	6013      	strhi	r3, [r2, #0]
10003d76:	4a1e      	ldr	r2, [pc, #120]	@ (10003df0 <xTaskPriorityDisinherit+0xb0>)
10003d78:	f1c3 0020 	rsb	r0, r3, #32
10003d7c:	eb03 0383 	add.w	r3, r3, r3, lsl #2
10003d80:	ea4f 0c83 	mov.w	ip, r3, lsl #2
10003d84:	eb02 0383 	add.w	r3, r2, r3, lsl #2
10003d88:	61e0      	str	r0, [r4, #28]
10003d8a:	6858      	ldr	r0, [r3, #4]
10003d8c:	f852 100c 	ldr.w	r1, [r2, ip]
10003d90:	6886      	ldr	r6, [r0, #8]
10003d92:	60e0      	str	r0, [r4, #12]
10003d94:	6126      	str	r6, [r4, #16]
10003d96:	6075      	str	r5, [r6, #4]
10003d98:	6085      	str	r5, [r0, #8]
10003d9a:	61a3      	str	r3, [r4, #24]
10003d9c:	6ba3      	ldr	r3, [r4, #56]	@ 0x38
10003d9e:	3101      	adds	r1, #1
10003da0:	2b00      	cmp	r3, #0
10003da2:	f842 100c 	str.w	r1, [r2, ip]
10003da6:	db02      	blt.n	10003dae <xTaskPriorityDisinherit+0x6e>
10003da8:	6ba3      	ldr	r3, [r4, #56]	@ 0x38
10003daa:	2b01      	cmp	r3, #1
10003dac:	dd01      	ble.n	10003db2 <xTaskPriorityDisinherit+0x72>
10003dae:	2001      	movs	r0, #1
10003db0:	bd70      	pop	{r4, r5, r6, pc}
10003db2:	f04f 4350 	mov.w	r3, #3489660928	@ 0xd0000000
10003db6:	6ba2      	ldr	r2, [r4, #56]	@ 0x38
10003db8:	681b      	ldr	r3, [r3, #0]
10003dba:	429a      	cmp	r2, r3
10003dbc:	d010      	beq.n	10003de0 <xTaskPriorityDisinherit+0xa0>
10003dbe:	6ba3      	ldr	r3, [r4, #56]	@ 0x38
10003dc0:	4d0c      	ldr	r5, [pc, #48]	@ (10003df4 <xTaskPriorityDisinherit+0xb4>)
10003dc2:	f855 3023 	ldr.w	r3, [r5, r3, lsl #2]
10003dc6:	6b9b      	ldr	r3, [r3, #56]	@ 0x38
10003dc8:	3302      	adds	r3, #2
10003dca:	d0f0      	beq.n	10003dae <xTaskPriorityDisinherit+0x6e>
10003dcc:	6ba0      	ldr	r0, [r4, #56]	@ 0x38
10003dce:	f7fe fa09 	bl	100021e4 <vYieldCore>
10003dd2:	f06f 0201 	mvn.w	r2, #1
10003dd6:	6ba3      	ldr	r3, [r4, #56]	@ 0x38
10003dd8:	f855 3023 	ldr.w	r3, [r5, r3, lsl #2]
10003ddc:	639a      	str	r2, [r3, #56]	@ 0x38
10003dde:	e7e6      	b.n	10003dae <xTaskPriorityDisinherit+0x6e>
10003de0:	2101      	movs	r1, #1
10003de2:	6ba2      	ldr	r2, [r4, #56]	@ 0x38
10003de4:	4b04      	ldr	r3, [pc, #16]	@ (10003df8 <xTaskPriorityDisinherit+0xb8>)
10003de6:	f843 1022 	str.w	r1, [r3, r2, lsl #2]
10003dea:	e7e0      	b.n	10003dae <xTaskPriorityDisinherit+0x6e>
10003dec:	20020bbc 	.word	0x20020bbc
10003df0:	2000090c 	.word	0x2000090c
10003df4:	200008f0 	.word	0x200008f0
10003df8:	20020c90 	.word	0x20020c90

10003dfc <vTaskYieldWithinAPI>:
10003dfc:	f04f 4350 	mov.w	r3, #3489660928	@ 0xd0000000
10003e00:	4a05      	ldr	r2, [pc, #20]	@ (10003e18 <vTaskYieldWithinAPI+0x1c>)
10003e02:	681b      	ldr	r3, [r3, #0]
10003e04:	f852 2023 	ldr.w	r2, [r2, r3, lsl #2]
10003e08:	b122      	cbz	r2, 10003e14 <vTaskYieldWithinAPI+0x18>
10003e0a:	2101      	movs	r1, #1
10003e0c:	4a03      	ldr	r2, [pc, #12]	@ (10003e1c <vTaskYieldWithinAPI+0x20>)
10003e0e:	f842 1023 	str.w	r1, [r2, r3, lsl #2]
10003e12:	4770      	bx	lr
10003e14:	f7fe b844 	b.w	10001ea0 <vPortYield>
10003e18:	20020ba0 	.word	0x20020ba0
10003e1c:	20020c90 	.word	0x20020c90

10003e20 <vTaskEnterCritical>:
10003e20:	b538      	push	{r3, r4, r5, lr}
10003e22:	f7fe fa11 	bl	10002248 <ulSetInterruptMask>
10003e26:	4b3e      	ldr	r3, [pc, #248]	@ (10003f20 <vTaskEnterCritical+0x100>)
10003e28:	681b      	ldr	r3, [r3, #0]
10003e2a:	b193      	cbz	r3, 10003e52 <vTaskEnterCritical+0x32>
10003e2c:	f04f 4350 	mov.w	r3, #3489660928	@ 0xd0000000
10003e30:	4a3c      	ldr	r2, [pc, #240]	@ (10003f24 <vTaskEnterCritical+0x104>)
10003e32:	681b      	ldr	r3, [r3, #0]
10003e34:	f852 1023 	ldr.w	r1, [r2, r3, lsl #2]
10003e38:	b1a1      	cbz	r1, 10003e64 <vTaskEnterCritical+0x44>
10003e3a:	f04f 4050 	mov.w	r0, #3489660928	@ 0xd0000000
10003e3e:	f852 1023 	ldr.w	r1, [r2, r3, lsl #2]
10003e42:	3101      	adds	r1, #1
10003e44:	f842 1023 	str.w	r1, [r2, r3, lsl #2]
10003e48:	6803      	ldr	r3, [r0, #0]
10003e4a:	f852 3023 	ldr.w	r3, [r2, r3, lsl #2]
10003e4e:	2b01      	cmp	r3, #1
10003e50:	d000      	beq.n	10003e54 <vTaskEnterCritical+0x34>
10003e52:	bd38      	pop	{r3, r4, r5, pc}
10003e54:	4b34      	ldr	r3, [pc, #208]	@ (10003f28 <vTaskEnterCritical+0x108>)
10003e56:	681b      	ldr	r3, [r3, #0]
10003e58:	2b00      	cmp	r3, #0
10003e5a:	d1fa      	bne.n	10003e52 <vTaskEnterCritical+0x32>
10003e5c:	e8bd 4038 	ldmia.w	sp!, {r3, r4, r5, lr}
10003e60:	f7fe bff8 	b.w	10002e54 <prvCheckForRunStateChange>
10003e64:	4931      	ldr	r1, [pc, #196]	@ (10003f2c <vTaskEnterCritical+0x10c>)
10003e66:	e8d1 0fcf 	ldaexb	r0, [r1]
10003e6a:	2401      	movs	r4, #1
10003e6c:	2800      	cmp	r0, #0
10003e6e:	d101      	bne.n	10003e74 <vTaskEnterCritical+0x54>
10003e70:	e8c1 4f40 	strexb	r0, r4, [r1]
10003e74:	f3bf 8f5f 	dmb	sy
10003e78:	2800      	cmp	r0, #0
10003e7a:	d131      	bne.n	10003ee0 <vTaskEnterCritical+0xc0>
10003e7c:	482c      	ldr	r0, [pc, #176]	@ (10003f30 <vTaskEnterCritical+0x110>)
10003e7e:	ea4f 0c43 	mov.w	ip, r3, lsl #1
10003e82:	2301      	movs	r3, #1
10003e84:	492b      	ldr	r1, [pc, #172]	@ (10003f34 <vTaskEnterCritical+0x114>)
10003e86:	4484      	add	ip, r0
10003e88:	704b      	strb	r3, [r1, #1]
10003e8a:	f88c 3001 	strb.w	r3, [ip, #1]
10003e8e:	f04f 4c50 	mov.w	ip, #3489660928	@ 0xd0000000
10003e92:	4b29      	ldr	r3, [pc, #164]	@ (10003f38 <vTaskEnterCritical+0x118>)
10003e94:	f8dc 4000 	ldr.w	r4, [ip]
10003e98:	e8d3 5fcf 	ldaexb	r5, [r3]
10003e9c:	f05f 0e01 	movs.w	lr, #1
10003ea0:	2d00      	cmp	r5, #0
10003ea2:	d101      	bne.n	10003ea8 <vTaskEnterCritical+0x88>
10003ea4:	e8c3 ef45 	strexb	r5, lr, [r3]
10003ea8:	f3bf 8f5f 	dmb	sy
10003eac:	b185      	cbz	r5, 10003ed0 <vTaskEnterCritical+0xb0>
10003eae:	f810 5014 	ldrb.w	r5, [r0, r4, lsl #1]
10003eb2:	2d00      	cmp	r5, #0
10003eb4:	d127      	bne.n	10003f06 <vTaskEnterCritical+0xe6>
10003eb6:	e8d3 cfcf 	ldaexb	ip, [r3]
10003eba:	2501      	movs	r5, #1
10003ebc:	f1bc 0f00 	cmp.w	ip, #0
10003ec0:	d1f9      	bne.n	10003eb6 <vTaskEnterCritical+0x96>
10003ec2:	e8c3 5f4c 	strexb	ip, r5, [r3]
10003ec6:	f1bc 0f00 	cmp.w	ip, #0
10003eca:	d1f4      	bne.n	10003eb6 <vTaskEnterCritical+0x96>
10003ecc:	f3bf 8f5f 	dmb	sy
10003ed0:	2301      	movs	r3, #1
10003ed2:	f04f 4550 	mov.w	r5, #3489660928	@ 0xd0000000
10003ed6:	700b      	strb	r3, [r1, #0]
10003ed8:	f800 3014 	strb.w	r3, [r0, r4, lsl #1]
10003edc:	682b      	ldr	r3, [r5, #0]
10003ede:	e7ac      	b.n	10003e3a <vTaskEnterCritical+0x1a>
10003ee0:	4813      	ldr	r0, [pc, #76]	@ (10003f30 <vTaskEnterCritical+0x110>)
10003ee2:	ea4f 0c43 	mov.w	ip, r3, lsl #1
10003ee6:	eb00 0343 	add.w	r3, r0, r3, lsl #1
10003eea:	785b      	ldrb	r3, [r3, #1]
10003eec:	b993      	cbnz	r3, 10003f14 <vTaskEnterCritical+0xf4>
10003eee:	e8d1 4fcf 	ldaexb	r4, [r1]
10003ef2:	2301      	movs	r3, #1
10003ef4:	2c00      	cmp	r4, #0
10003ef6:	d1fa      	bne.n	10003eee <vTaskEnterCritical+0xce>
10003ef8:	e8c1 3f44 	strexb	r4, r3, [r1]
10003efc:	2c00      	cmp	r4, #0
10003efe:	d1f6      	bne.n	10003eee <vTaskEnterCritical+0xce>
10003f00:	f3bf 8f5f 	dmb	sy
10003f04:	e7bd      	b.n	10003e82 <vTaskEnterCritical+0x62>
10003f06:	780b      	ldrb	r3, [r1, #0]
10003f08:	3301      	adds	r3, #1
10003f0a:	b2db      	uxtb	r3, r3
10003f0c:	700b      	strb	r3, [r1, #0]
10003f0e:	f8dc 3000 	ldr.w	r3, [ip]
10003f12:	e792      	b.n	10003e3a <vTaskEnterCritical+0x1a>
10003f14:	4907      	ldr	r1, [pc, #28]	@ (10003f34 <vTaskEnterCritical+0x114>)
10003f16:	784b      	ldrb	r3, [r1, #1]
10003f18:	3301      	adds	r3, #1
10003f1a:	b2db      	uxtb	r3, r3
10003f1c:	704b      	strb	r3, [r1, #1]
10003f1e:	e7b6      	b.n	10003e8e <vTaskEnterCritical+0x6e>
10003f20:	20020c50 	.word	0x20020c50
10003f24:	20020ba0 	.word	0x20020ba0
10003f28:	20020bb4 	.word	0x20020bb4
10003f2c:	2000085f 	.word	0x2000085f
10003f30:	20020b98 	.word	0x20020b98
10003f34:	20020b9c 	.word	0x20020b9c
10003f38:	2000085e 	.word	0x2000085e

10003f3c <prvAddNewTaskToReadyList>:
10003f3c:	e92d 41f0 	stmdb	sp!, {r4, r5, r6, r7, r8, lr}
10003f40:	4605      	mov	r5, r0
10003f42:	f7ff ff6d 	bl	10003e20 <vTaskEnterCritical>
10003f46:	4a2e      	ldr	r2, [pc, #184]	@ (10004000 <prvAddNewTaskToReadyList+0xc4>)
10003f48:	4f2e      	ldr	r7, [pc, #184]	@ (10004004 <prvAddNewTaskToReadyList+0xc8>)
10003f4a:	6813      	ldr	r3, [r2, #0]
10003f4c:	3301      	adds	r3, #1
10003f4e:	6013      	str	r3, [r2, #0]
10003f50:	683b      	ldr	r3, [r7, #0]
10003f52:	b353      	cbz	r3, 10003faa <prvAddNewTaskToReadyList+0x6e>
10003f54:	4e2c      	ldr	r6, [pc, #176]	@ (10004008 <prvAddNewTaskToReadyList+0xcc>)
10003f56:	4b2d      	ldr	r3, [pc, #180]	@ (1000400c <prvAddNewTaskToReadyList+0xd0>)
10003f58:	f105 0408 	add.w	r4, r5, #8
10003f5c:	681a      	ldr	r2, [r3, #0]
10003f5e:	3201      	adds	r2, #1
10003f60:	652a      	str	r2, [r5, #80]	@ 0x50
10003f62:	601a      	str	r2, [r3, #0]
10003f64:	4a2a      	ldr	r2, [pc, #168]	@ (10004010 <prvAddNewTaskToReadyList+0xd4>)
10003f66:	6b2b      	ldr	r3, [r5, #48]	@ 0x30
10003f68:	6811      	ldr	r1, [r2, #0]
10003f6a:	428b      	cmp	r3, r1
10003f6c:	bf88      	it	hi
10003f6e:	6013      	strhi	r3, [r2, #0]
10003f70:	eb03 0383 	add.w	r3, r3, r3, lsl #2
10003f74:	0098      	lsls	r0, r3, #2
10003f76:	eb06 0383 	add.w	r3, r6, r3, lsl #2
10003f7a:	6859      	ldr	r1, [r3, #4]
10003f7c:	5832      	ldr	r2, [r6, r0]
10003f7e:	f8d1 c008 	ldr.w	ip, [r1, #8]
10003f82:	f8d7 e000 	ldr.w	lr, [r7]
10003f86:	3201      	adds	r2, #1
10003f88:	60e9      	str	r1, [r5, #12]
10003f8a:	f8c5 c010 	str.w	ip, [r5, #16]
10003f8e:	f8cc 4004 	str.w	r4, [ip, #4]
10003f92:	608c      	str	r4, [r1, #8]
10003f94:	61ab      	str	r3, [r5, #24]
10003f96:	5032      	str	r2, [r6, r0]
10003f98:	f1be 0f00 	cmp.w	lr, #0
10003f9c:	d12c      	bne.n	10003ff8 <prvAddNewTaskToReadyList+0xbc>
10003f9e:	683b      	ldr	r3, [r7, #0]
10003fa0:	b343      	cbz	r3, 10003ff4 <prvAddNewTaskToReadyList+0xb8>
10003fa2:	e8bd 41f0 	ldmia.w	sp!, {r4, r5, r6, r7, r8, lr}
10003fa6:	f7fe be73 	b.w	10002c90 <vTaskExitCritical.part.0>
10003faa:	6813      	ldr	r3, [r2, #0]
10003fac:	4e16      	ldr	r6, [pc, #88]	@ (10004008 <prvAddNewTaskToReadyList+0xcc>)
10003fae:	2b01      	cmp	r3, #1
10003fb0:	d1d1      	bne.n	10003f56 <prvAddNewTaskToReadyList+0x1a>
10003fb2:	4634      	mov	r4, r6
10003fb4:	f506 7820 	add.w	r8, r6, #640	@ 0x280
10003fb8:	4620      	mov	r0, r4
10003fba:	3414      	adds	r4, #20
10003fbc:	f7fe fa8a 	bl	100024d4 <vListInitialise>
10003fc0:	4544      	cmp	r4, r8
10003fc2:	d1f9      	bne.n	10003fb8 <prvAddNewTaskToReadyList+0x7c>
10003fc4:	f8df 8064 	ldr.w	r8, [pc, #100]	@ 1000402c <prvAddNewTaskToReadyList+0xf0>
10003fc8:	4c12      	ldr	r4, [pc, #72]	@ (10004014 <prvAddNewTaskToReadyList+0xd8>)
10003fca:	4640      	mov	r0, r8
10003fcc:	f7fe fa82 	bl	100024d4 <vListInitialise>
10003fd0:	4620      	mov	r0, r4
10003fd2:	f7fe fa7f 	bl	100024d4 <vListInitialise>
10003fd6:	4810      	ldr	r0, [pc, #64]	@ (10004018 <prvAddNewTaskToReadyList+0xdc>)
10003fd8:	f7fe fa7c 	bl	100024d4 <vListInitialise>
10003fdc:	480f      	ldr	r0, [pc, #60]	@ (1000401c <prvAddNewTaskToReadyList+0xe0>)
10003fde:	f7fe fa79 	bl	100024d4 <vListInitialise>
10003fe2:	480f      	ldr	r0, [pc, #60]	@ (10004020 <prvAddNewTaskToReadyList+0xe4>)
10003fe4:	f7fe fa76 	bl	100024d4 <vListInitialise>
10003fe8:	4b0e      	ldr	r3, [pc, #56]	@ (10004024 <prvAddNewTaskToReadyList+0xe8>)
10003fea:	f8c3 8000 	str.w	r8, [r3]
10003fee:	4b0e      	ldr	r3, [pc, #56]	@ (10004028 <prvAddNewTaskToReadyList+0xec>)
10003ff0:	601c      	str	r4, [r3, #0]
10003ff2:	e7b0      	b.n	10003f56 <prvAddNewTaskToReadyList+0x1a>
10003ff4:	e8bd 81f0 	ldmia.w	sp!, {r4, r5, r6, r7, r8, pc}
10003ff8:	4628      	mov	r0, r5
10003ffa:	f7fe fdd9 	bl	10002bb0 <prvYieldForTask>
10003ffe:	e7ce      	b.n	10003f9e <prvAddNewTaskToReadyList+0x62>
10004000:	20020bac 	.word	0x20020bac
10004004:	20020c50 	.word	0x20020c50
10004008:	2000090c 	.word	0x2000090c
1000400c:	20020bb8 	.word	0x20020bb8
10004010:	20020bbc 	.word	0x20020bbc
10004014:	20020bfc 	.word	0x20020bfc
10004018:	20020c3c 	.word	0x20020c3c
1000401c:	20020c70 	.word	0x20020c70
10004020:	20020c5c 	.word	0x20020c5c
10004024:	200008fc 	.word	0x200008fc
10004028:	20000904 	.word	0x20000904
1000402c:	20020be8 	.word	0x20020be8

10004030 <xTaskCreate>:
10004030:	b510      	push	{r4, lr}
10004032:	b082      	sub	sp, #8
10004034:	9c04      	ldr	r4, [sp, #16]
10004036:	9400      	str	r4, [sp, #0]
10004038:	9c05      	ldr	r4, [sp, #20]
1000403a:	9401      	str	r4, [sp, #4]
1000403c:	f7fe fe6e 	bl	10002d1c <prvCreateTask>
10004040:	b138      	cbz	r0, 10004052 <xTaskCreate+0x22>
10004042:	f04f 32ff 	mov.w	r2, #4294967295
10004046:	6042      	str	r2, [r0, #4]
10004048:	f7ff ff78 	bl	10003f3c <prvAddNewTaskToReadyList>
1000404c:	2001      	movs	r0, #1
1000404e:	b002      	add	sp, #8
10004050:	bd10      	pop	{r4, pc}
10004052:	f04f 30ff 	mov.w	r0, #4294967295
10004056:	b002      	add	sp, #8
10004058:	bd10      	pop	{r4, pc}
1000405a:	bf00      	nop

1000405c <xTaskCreateAffinitySet>:
1000405c:	b510      	push	{r4, lr}
1000405e:	b082      	sub	sp, #8
10004060:	9c04      	ldr	r4, [sp, #16]
10004062:	9400      	str	r4, [sp, #0]
10004064:	9c06      	ldr	r4, [sp, #24]
10004066:	9401      	str	r4, [sp, #4]
10004068:	f7fe fe58 	bl	10002d1c <prvCreateTask>
1000406c:	b130      	cbz	r0, 1000407c <xTaskCreateAffinitySet+0x20>
1000406e:	9a05      	ldr	r2, [sp, #20]
10004070:	6042      	str	r2, [r0, #4]
10004072:	f7ff ff63 	bl	10003f3c <prvAddNewTaskToReadyList>
10004076:	2001      	movs	r0, #1
10004078:	b002      	add	sp, #8
1000407a:	bd10      	pop	{r4, pc}
1000407c:	f04f 30ff 	mov.w	r0, #4294967295
10004080:	b002      	add	sp, #8
10004082:	bd10      	pop	{r4, pc}

10004084 <vTaskStartScheduler>:
10004084:	2300      	movs	r3, #0
10004086:	b5f0      	push	{r4, r5, r6, r7, lr}
10004088:	2430      	movs	r4, #48	@ 0x30
1000408a:	4a26      	ldr	r2, [pc, #152]	@ (10004124 <vTaskStartScheduler+0xa0>)
1000408c:	4e26      	ldr	r6, [pc, #152]	@ (10004128 <vTaskStartScheduler+0xa4>)
1000408e:	b087      	sub	sp, #28
10004090:	e9cd 6201 	strd	r6, r2, [sp, #4]
10004094:	4825      	ldr	r0, [pc, #148]	@ (1000412c <vTaskStartScheduler+0xa8>)
10004096:	f44f 7200 	mov.w	r2, #512	@ 0x200
1000409a:	a902      	add	r1, sp, #8
1000409c:	9300      	str	r3, [sp, #0]
1000409e:	f8ad 400c 	strh.w	r4, [sp, #12]
100040a2:	f7fe fe3b 	bl	10002d1c <prvCreateTask>
100040a6:	b120      	cbz	r0, 100040b2 <vTaskStartScheduler+0x2e>
100040a8:	f04f 32ff 	mov.w	r2, #4294967295
100040ac:	6042      	str	r2, [r0, #4]
100040ae:	f7ff ff45 	bl	10003f3c <prvAddNewTaskToReadyList>
100040b2:	2331      	movs	r3, #49	@ 0x31
100040b4:	2400      	movs	r4, #0
100040b6:	6832      	ldr	r2, [r6, #0]
100040b8:	4d1d      	ldr	r5, [pc, #116]	@ (10004130 <vTaskStartScheduler+0xac>)
100040ba:	f88d 300c 	strb.w	r3, [sp, #12]
100040be:	4b1d      	ldr	r3, [pc, #116]	@ (10004134 <vTaskStartScheduler+0xb0>)
100040c0:	6394      	str	r4, [r2, #56]	@ 0x38
100040c2:	481d      	ldr	r0, [pc, #116]	@ (10004138 <vTaskStartScheduler+0xb4>)
100040c4:	9301      	str	r3, [sp, #4]
100040c6:	9400      	str	r4, [sp, #0]
100040c8:	4623      	mov	r3, r4
100040ca:	602a      	str	r2, [r5, #0]
100040cc:	a902      	add	r1, sp, #8
100040ce:	f44f 7200 	mov.w	r2, #512	@ 0x200
100040d2:	f7fe fe23 	bl	10002d1c <prvCreateTask>
100040d6:	b188      	cbz	r0, 100040fc <vTaskStartScheduler+0x78>
100040d8:	f04f 37ff 	mov.w	r7, #4294967295
100040dc:	6047      	str	r7, [r0, #4]
100040de:	f7ff ff2d 	bl	10003f3c <prvAddNewTaskToReadyList>
100040e2:	2201      	movs	r2, #1
100040e4:	6873      	ldr	r3, [r6, #4]
100040e6:	639a      	str	r2, [r3, #56]	@ 0x38
100040e8:	606b      	str	r3, [r5, #4]
100040ea:	f000 fc35 	bl	10004958 <xTimerCreateTimerTask>
100040ee:	2801      	cmp	r0, #1
100040f0:	4605      	mov	r5, r0
100040f2:	d00b      	beq.n	1000410c <vTaskStartScheduler+0x88>
100040f4:	4b11      	ldr	r3, [pc, #68]	@ (1000413c <vTaskStartScheduler+0xb8>)
100040f6:	681b      	ldr	r3, [r3, #0]
100040f8:	b007      	add	sp, #28
100040fa:	bdf0      	pop	{r4, r5, r6, r7, pc}
100040fc:	2201      	movs	r2, #1
100040fe:	6873      	ldr	r3, [r6, #4]
10004100:	639a      	str	r2, [r3, #56]	@ 0x38
10004102:	606b      	str	r3, [r5, #4]
10004104:	4b0d      	ldr	r3, [pc, #52]	@ (1000413c <vTaskStartScheduler+0xb8>)
10004106:	681b      	ldr	r3, [r3, #0]
10004108:	b007      	add	sp, #28
1000410a:	bdf0      	pop	{r4, r5, r6, r7, pc}
1000410c:	f7fe f89c 	bl	10002248 <ulSetInterruptMask>
10004110:	490b      	ldr	r1, [pc, #44]	@ (10004140 <vTaskStartScheduler+0xbc>)
10004112:	4a0c      	ldr	r2, [pc, #48]	@ (10004144 <vTaskStartScheduler+0xc0>)
10004114:	4b0c      	ldr	r3, [pc, #48]	@ (10004148 <vTaskStartScheduler+0xc4>)
10004116:	600f      	str	r7, [r1, #0]
10004118:	6015      	str	r5, [r2, #0]
1000411a:	601c      	str	r4, [r3, #0]
1000411c:	f7fd ff1e 	bl	10001f5c <xPortStartScheduler>
10004120:	e7e8      	b.n	100040f4 <vTaskStartScheduler+0x70>
10004122:	bf00      	nop
10004124:	454c4449 	.word	0x454c4449
10004128:	20020c18 	.word	0x20020c18
1000412c:	10003241 	.word	0x10003241
10004130:	200008f0 	.word	0x200008f0
10004134:	20020c1c 	.word	0x20020c1c
10004138:	10002b91 	.word	0x10002b91
1000413c:	10004fe4 	.word	0x10004fe4
10004140:	20020c28 	.word	0x20020c28
10004144:	20020c50 	.word	0x20020c50
10004148:	20020c84 	.word	0x20020c84

1000414c <xTaskResumeAll.part.0>:
1000414c:	e92d 47f0 	stmdb	sp!, {r4, r5, r6, r7, r8, r9, sl, lr}
10004150:	f7ff fe66 	bl	10003e20 <vTaskEnterCritical>
10004154:	f04f 4050 	mov.w	r0, #3489660928	@ 0xd0000000
10004158:	4a57      	ldr	r2, [pc, #348]	@ (100042b8 <xTaskResumeAll.part.0+0x16c>)
1000415a:	4958      	ldr	r1, [pc, #352]	@ (100042bc <xTaskResumeAll.part.0+0x170>)
1000415c:	6813      	ldr	r3, [r2, #0]
1000415e:	6805      	ldr	r5, [r0, #0]
10004160:	3b01      	subs	r3, #1
10004162:	6013      	str	r3, [r2, #0]
10004164:	784b      	ldrb	r3, [r1, #1]
10004166:	6800      	ldr	r0, [r0, #0]
10004168:	3b01      	subs	r3, #1
1000416a:	b2db      	uxtb	r3, r3
1000416c:	704b      	strb	r3, [r1, #1]
1000416e:	b933      	cbnz	r3, 1000417e <xTaskResumeAll.part.0+0x32>
10004170:	4953      	ldr	r1, [pc, #332]	@ (100042c0 <xTaskResumeAll.part.0+0x174>)
10004172:	eb01 0140 	add.w	r1, r1, r0, lsl #1
10004176:	704b      	strb	r3, [r1, #1]
10004178:	4952      	ldr	r1, [pc, #328]	@ (100042c4 <xTaskResumeAll.part.0+0x178>)
1000417a:	e8c1 3f8f 	stlb	r3, [r1]
1000417e:	f8d2 c000 	ldr.w	ip, [r2]
10004182:	f1bc 0f00 	cmp.w	ip, #0
10004186:	d16e      	bne.n	10004266 <xTaskResumeAll.part.0+0x11a>
10004188:	4b4f      	ldr	r3, [pc, #316]	@ (100042c8 <xTaskResumeAll.part.0+0x17c>)
1000418a:	681c      	ldr	r4, [r3, #0]
1000418c:	2c00      	cmp	r4, #0
1000418e:	d062      	beq.n	10004256 <xTaskResumeAll.part.0+0x10a>
10004190:	4f4e      	ldr	r7, [pc, #312]	@ (100042cc <xTaskResumeAll.part.0+0x180>)
10004192:	683b      	ldr	r3, [r7, #0]
10004194:	2b00      	cmp	r3, #0
10004196:	d048      	beq.n	1000422a <xTaskResumeAll.part.0+0xde>
10004198:	f8df e148 	ldr.w	lr, [pc, #328]	@ 100042e4 <xTaskResumeAll.part.0+0x198>
1000419c:	4e4c      	ldr	r6, [pc, #304]	@ (100042d0 <xTaskResumeAll.part.0+0x184>)
1000419e:	68fb      	ldr	r3, [r7, #12]
100041a0:	68db      	ldr	r3, [r3, #12]
100041a2:	6ada      	ldr	r2, [r3, #44]	@ 0x2c
100041a4:	e9d3 1008 	ldrd	r1, r0, [r3, #32]
100041a8:	6088      	str	r0, [r1, #8]
100041aa:	6041      	str	r1, [r0, #4]
100041ac:	6851      	ldr	r1, [r2, #4]
100041ae:	f103 041c 	add.w	r4, r3, #28
100041b2:	42a1      	cmp	r1, r4
100041b4:	6811      	ldr	r1, [r2, #0]
100041b6:	bf08      	it	eq
100041b8:	6050      	streq	r0, [r2, #4]
100041ba:	3901      	subs	r1, #1
100041bc:	f8c3 c02c 	str.w	ip, [r3, #44]	@ 0x2c
100041c0:	6011      	str	r1, [r2, #0]
100041c2:	6999      	ldr	r1, [r3, #24]
100041c4:	68d8      	ldr	r0, [r3, #12]
100041c6:	691a      	ldr	r2, [r3, #16]
100041c8:	684c      	ldr	r4, [r1, #4]
100041ca:	6082      	str	r2, [r0, #8]
100041cc:	6050      	str	r0, [r2, #4]
100041ce:	f103 0008 	add.w	r0, r3, #8
100041d2:	4284      	cmp	r4, r0
100041d4:	bf08      	it	eq
100041d6:	604a      	streq	r2, [r1, #4]
100041d8:	680c      	ldr	r4, [r1, #0]
100041da:	6b1a      	ldr	r2, [r3, #48]	@ 0x30
100041dc:	f8de 8000 	ldr.w	r8, [lr]
100041e0:	3c01      	subs	r4, #1
100041e2:	4542      	cmp	r2, r8
100041e4:	eb02 0a82 	add.w	sl, r2, r2, lsl #2
100041e8:	600c      	str	r4, [r1, #0]
100041ea:	d93e      	bls.n	1000426a <xTaskResumeAll.part.0+0x11e>
100041ec:	eb06 048a 	add.w	r4, r6, sl, lsl #2
100041f0:	6861      	ldr	r1, [r4, #4]
100041f2:	f8ce 2000 	str.w	r2, [lr]
100041f6:	f8d1 8008 	ldr.w	r8, [r1, #8]
100041fa:	f856 202a 	ldr.w	r2, [r6, sl, lsl #2]
100041fe:	60d9      	str	r1, [r3, #12]
10004200:	f8c3 8010 	str.w	r8, [r3, #16]
10004204:	f8c8 0004 	str.w	r0, [r8, #4]
10004208:	6088      	str	r0, [r1, #8]
1000420a:	619c      	str	r4, [r3, #24]
1000420c:	683b      	ldr	r3, [r7, #0]
1000420e:	3201      	adds	r2, #1
10004210:	f846 202a 	str.w	r2, [r6, sl, lsl #2]
10004214:	2b00      	cmp	r3, #0
10004216:	d1c2      	bne.n	1000419e <xTaskResumeAll.part.0+0x52>
10004218:	4b2e      	ldr	r3, [pc, #184]	@ (100042d4 <xTaskResumeAll.part.0+0x188>)
1000421a:	681a      	ldr	r2, [r3, #0]
1000421c:	6812      	ldr	r2, [r2, #0]
1000421e:	2a00      	cmp	r2, #0
10004220:	d143      	bne.n	100042aa <xTaskResumeAll.part.0+0x15e>
10004222:	f04f 32ff 	mov.w	r2, #4294967295
10004226:	4b2c      	ldr	r3, [pc, #176]	@ (100042d8 <xTaskResumeAll.part.0+0x18c>)
10004228:	601a      	str	r2, [r3, #0]
1000422a:	f8df 80bc 	ldr.w	r8, [pc, #188]	@ 100042e8 <xTaskResumeAll.part.0+0x19c>
1000422e:	f8d8 4000 	ldr.w	r4, [r8]
10004232:	2c00      	cmp	r4, #0
10004234:	d032      	beq.n	1000429c <xTaskResumeAll.part.0+0x150>
10004236:	2701      	movs	r7, #1
10004238:	4e28      	ldr	r6, [pc, #160]	@ (100042dc <xTaskResumeAll.part.0+0x190>)
1000423a:	f7ff f99f 	bl	1000357c <xTaskIncrementTick>
1000423e:	b108      	cbz	r0, 10004244 <xTaskResumeAll.part.0+0xf8>
10004240:	f846 7025 	str.w	r7, [r6, r5, lsl #2]
10004244:	3c01      	subs	r4, #1
10004246:	d1f8      	bne.n	1000423a <xTaskResumeAll.part.0+0xee>
10004248:	f8c8 4000 	str.w	r4, [r8]
1000424c:	f856 4025 	ldr.w	r4, [r6, r5, lsl #2]
10004250:	3c00      	subs	r4, #0
10004252:	bf18      	it	ne
10004254:	2401      	movne	r4, #1
10004256:	4b22      	ldr	r3, [pc, #136]	@ (100042e0 <xTaskResumeAll.part.0+0x194>)
10004258:	681b      	ldr	r3, [r3, #0]
1000425a:	b10b      	cbz	r3, 10004260 <xTaskResumeAll.part.0+0x114>
1000425c:	f7fe fd18 	bl	10002c90 <vTaskExitCritical.part.0>
10004260:	4620      	mov	r0, r4
10004262:	e8bd 87f0 	ldmia.w	sp!, {r4, r5, r6, r7, r8, r9, sl, pc}
10004266:	2400      	movs	r4, #0
10004268:	e7f5      	b.n	10004256 <xTaskResumeAll.part.0+0x10a>
1000426a:	eb06 048a 	add.w	r4, r6, sl, lsl #2
1000426e:	6861      	ldr	r1, [r4, #4]
10004270:	f856 202a 	ldr.w	r2, [r6, sl, lsl #2]
10004274:	f8d1 8008 	ldr.w	r8, [r1, #8]
10004278:	60d9      	str	r1, [r3, #12]
1000427a:	f8c3 8010 	str.w	r8, [r3, #16]
1000427e:	f8c8 0004 	str.w	r0, [r8, #4]
10004282:	6088      	str	r0, [r1, #8]
10004284:	619c      	str	r4, [r3, #24]
10004286:	683b      	ldr	r3, [r7, #0]
10004288:	3201      	adds	r2, #1
1000428a:	f846 202a 	str.w	r2, [r6, sl, lsl #2]
1000428e:	2b00      	cmp	r3, #0
10004290:	d185      	bne.n	1000419e <xTaskResumeAll.part.0+0x52>
10004292:	4b10      	ldr	r3, [pc, #64]	@ (100042d4 <xTaskResumeAll.part.0+0x188>)
10004294:	681a      	ldr	r2, [r3, #0]
10004296:	6812      	ldr	r2, [r2, #0]
10004298:	b93a      	cbnz	r2, 100042aa <xTaskResumeAll.part.0+0x15e>
1000429a:	e7c2      	b.n	10004222 <xTaskResumeAll.part.0+0xd6>
1000429c:	4e0f      	ldr	r6, [pc, #60]	@ (100042dc <xTaskResumeAll.part.0+0x190>)
1000429e:	f856 4025 	ldr.w	r4, [r6, r5, lsl #2]
100042a2:	3c00      	subs	r4, #0
100042a4:	bf18      	it	ne
100042a6:	2401      	movne	r4, #1
100042a8:	e7d5      	b.n	10004256 <xTaskResumeAll.part.0+0x10a>
100042aa:	681a      	ldr	r2, [r3, #0]
100042ac:	4b0a      	ldr	r3, [pc, #40]	@ (100042d8 <xTaskResumeAll.part.0+0x18c>)
100042ae:	68d2      	ldr	r2, [r2, #12]
100042b0:	6812      	ldr	r2, [r2, #0]
100042b2:	601a      	str	r2, [r3, #0]
100042b4:	e7b9      	b.n	1000422a <xTaskResumeAll.part.0+0xde>
100042b6:	bf00      	nop
100042b8:	20020bb4 	.word	0x20020bb4
100042bc:	20020b9c 	.word	0x20020b9c
100042c0:	20020b98 	.word	0x20020b98
100042c4:	2000085f 	.word	0x2000085f
100042c8:	20020bac 	.word	0x20020bac
100042cc:	20020c3c 	.word	0x20020c3c
100042d0:	2000090c 	.word	0x2000090c
100042d4:	200008fc 	.word	0x200008fc
100042d8:	20020c28 	.word	0x20020c28
100042dc:	20020c90 	.word	0x20020c90
100042e0:	20020c50 	.word	0x20020c50
100042e4:	20020bbc 	.word	0x20020bbc
100042e8:	20020c38 	.word	0x20020c38

100042ec <xTaskResumeAll>:
100042ec:	4b02      	ldr	r3, [pc, #8]	@ (100042f8 <xTaskResumeAll+0xc>)
100042ee:	6818      	ldr	r0, [r3, #0]
100042f0:	b900      	cbnz	r0, 100042f4 <xTaskResumeAll+0x8>
100042f2:	4770      	bx	lr
100042f4:	f7ff bf2a 	b.w	1000414c <xTaskResumeAll.part.0>
100042f8:	20020c50 	.word	0x20020c50

100042fc <vTaskRemoveFromUnorderedEventList>:
100042fc:	b5f8      	push	{r3, r4, r5, r6, r7, lr}
100042fe:	e9d0 5201 	ldrd	r5, r2, [r0, #4]
10004302:	2700      	movs	r7, #0
10004304:	6903      	ldr	r3, [r0, #16]
10004306:	f041 4100 	orr.w	r1, r1, #2147483648	@ 0x80000000
1000430a:	6001      	str	r1, [r0, #0]
1000430c:	6859      	ldr	r1, [r3, #4]
1000430e:	68c4      	ldr	r4, [r0, #12]
10004310:	4281      	cmp	r1, r0
10004312:	60aa      	str	r2, [r5, #8]
10004314:	6055      	str	r5, [r2, #4]
10004316:	bf08      	it	eq
10004318:	605a      	streq	r2, [r3, #4]
1000431a:	681a      	ldr	r2, [r3, #0]
1000431c:	e9d4 6103 	ldrd	r6, r1, [r4, #12]
10004320:	3a01      	subs	r2, #1
10004322:	6107      	str	r7, [r0, #16]
10004324:	601a      	str	r2, [r3, #0]
10004326:	69a3      	ldr	r3, [r4, #24]
10004328:	f104 0508 	add.w	r5, r4, #8
1000432c:	685a      	ldr	r2, [r3, #4]
1000432e:	60b1      	str	r1, [r6, #8]
10004330:	42aa      	cmp	r2, r5
10004332:	681a      	ldr	r2, [r3, #0]
10004334:	604e      	str	r6, [r1, #4]
10004336:	bf08      	it	eq
10004338:	6059      	streq	r1, [r3, #4]
1000433a:	4912      	ldr	r1, [pc, #72]	@ (10004384 <vTaskRemoveFromUnorderedEventList+0x88>)
1000433c:	3a01      	subs	r2, #1
1000433e:	601a      	str	r2, [r3, #0]
10004340:	6b23      	ldr	r3, [r4, #48]	@ 0x30
10004342:	680a      	ldr	r2, [r1, #0]
10004344:	4293      	cmp	r3, r2
10004346:	4a10      	ldr	r2, [pc, #64]	@ (10004388 <vTaskRemoveFromUnorderedEventList+0x8c>)
10004348:	bf88      	it	hi
1000434a:	600b      	strhi	r3, [r1, #0]
1000434c:	eb03 0383 	add.w	r3, r3, r3, lsl #2
10004350:	0098      	lsls	r0, r3, #2
10004352:	eb02 0383 	add.w	r3, r2, r3, lsl #2
10004356:	6859      	ldr	r1, [r3, #4]
10004358:	688e      	ldr	r6, [r1, #8]
1000435a:	60e1      	str	r1, [r4, #12]
1000435c:	6126      	str	r6, [r4, #16]
1000435e:	6075      	str	r5, [r6, #4]
10004360:	608d      	str	r5, [r1, #8]
10004362:	5811      	ldr	r1, [r2, r0]
10004364:	61a3      	str	r3, [r4, #24]
10004366:	3101      	adds	r1, #1
10004368:	5011      	str	r1, [r2, r0]
1000436a:	f7ff fd59 	bl	10003e20 <vTaskEnterCritical>
1000436e:	4620      	mov	r0, r4
10004370:	f7fe fc1e 	bl	10002bb0 <prvYieldForTask>
10004374:	4b05      	ldr	r3, [pc, #20]	@ (1000438c <vTaskRemoveFromUnorderedEventList+0x90>)
10004376:	681b      	ldr	r3, [r3, #0]
10004378:	b11b      	cbz	r3, 10004382 <vTaskRemoveFromUnorderedEventList+0x86>
1000437a:	e8bd 40f8 	ldmia.w	sp!, {r3, r4, r5, r6, r7, lr}
1000437e:	f7fe bc87 	b.w	10002c90 <vTaskExitCritical.part.0>
10004382:	bdf8      	pop	{r3, r4, r5, r6, r7, pc}
10004384:	20020bbc 	.word	0x20020bbc
10004388:	2000090c 	.word	0x2000090c
1000438c:	20020c50 	.word	0x20020c50

10004390 <xTaskCheckForTimeOut>:
10004390:	e92d 4ff8 	stmdb	sp!, {r3, r4, r5, r6, r7, r8, r9, sl, fp, lr}
10004394:	4604      	mov	r4, r0
10004396:	f04f 4750 	mov.w	r7, #3489660928	@ 0xd0000000
1000439a:	f8df a094 	ldr.w	sl, [pc, #148]	@ 10004430 <xTaskCheckForTimeOut+0xa0>
1000439e:	460d      	mov	r5, r1
100043a0:	4e20      	ldr	r6, [pc, #128]	@ (10004424 <xTaskCheckForTimeOut+0x94>)
100043a2:	f7ff fd3d 	bl	10003e20 <vTaskEnterCritical>
100043a6:	f8da 9000 	ldr.w	r9, [sl]
100043aa:	f8d4 8004 	ldr.w	r8, [r4, #4]
100043ae:	f7fd ff4b 	bl	10002248 <ulSetInterruptMask>
100043b2:	683b      	ldr	r3, [r7, #0]
100043b4:	f856 b023 	ldr.w	fp, [r6, r3, lsl #2]
100043b8:	f7fd ff52 	bl	10002260 <vClearInterruptMask>
100043bc:	f89b 3079 	ldrb.w	r3, [fp, #121]	@ 0x79
100043c0:	bb23      	cbnz	r3, 1000440c <xTaskCheckForTimeOut+0x7c>
100043c2:	682b      	ldr	r3, [r5, #0]
100043c4:	1c5a      	adds	r2, r3, #1
100043c6:	d018      	beq.n	100043fa <xTaskCheckForTimeOut+0x6a>
100043c8:	4a17      	ldr	r2, [pc, #92]	@ (10004428 <xTaskCheckForTimeOut+0x98>)
100043ca:	6821      	ldr	r1, [r4, #0]
100043cc:	6810      	ldr	r0, [r2, #0]
100043ce:	4281      	cmp	r1, r0
100043d0:	d006      	beq.n	100043e0 <xTaskCheckForTimeOut+0x50>
100043d2:	6861      	ldr	r1, [r4, #4]
100043d4:	4549      	cmp	r1, r9
100043d6:	d803      	bhi.n	100043e0 <xTaskCheckForTimeOut+0x50>
100043d8:	2300      	movs	r3, #0
100043da:	602b      	str	r3, [r5, #0]
100043dc:	2401      	movs	r4, #1
100043de:	e00d      	b.n	100043fc <xTaskCheckForTimeOut+0x6c>
100043e0:	eba9 0108 	sub.w	r1, r9, r8
100043e4:	428b      	cmp	r3, r1
100043e6:	d9f7      	bls.n	100043d8 <xTaskCheckForTimeOut+0x48>
100043e8:	6811      	ldr	r1, [r2, #0]
100043ea:	eba3 0309 	sub.w	r3, r3, r9
100043ee:	f8da 2000 	ldr.w	r2, [sl]
100043f2:	4443      	add	r3, r8
100043f4:	602b      	str	r3, [r5, #0]
100043f6:	e9c4 1200 	strd	r1, r2, [r4]
100043fa:	2400      	movs	r4, #0
100043fc:	4b0b      	ldr	r3, [pc, #44]	@ (1000442c <xTaskCheckForTimeOut+0x9c>)
100043fe:	681b      	ldr	r3, [r3, #0]
10004400:	b10b      	cbz	r3, 10004406 <xTaskCheckForTimeOut+0x76>
10004402:	f7fe fc45 	bl	10002c90 <vTaskExitCritical.part.0>
10004406:	4620      	mov	r0, r4
10004408:	e8bd 8ff8 	ldmia.w	sp!, {r3, r4, r5, r6, r7, r8, r9, sl, fp, pc}
1000440c:	f7fd ff1c 	bl	10002248 <ulSetInterruptMask>
10004410:	683b      	ldr	r3, [r7, #0]
10004412:	f856 4023 	ldr.w	r4, [r6, r3, lsl #2]
10004416:	f7fd ff23 	bl	10002260 <vClearInterruptMask>
1000441a:	2300      	movs	r3, #0
1000441c:	f884 3079 	strb.w	r3, [r4, #121]	@ 0x79
10004420:	e7dc      	b.n	100043dc <xTaskCheckForTimeOut+0x4c>
10004422:	bf00      	nop
10004424:	200008f0 	.word	0x200008f0
10004428:	20020c2c 	.word	0x20020c2c
1000442c:	20020c50 	.word	0x20020c50
10004430:	20020c84 	.word	0x20020c84

10004434 <vTaskEnterCriticalFromISR>:
10004434:	4b1f      	ldr	r3, [pc, #124]	@ (100044b4 <vTaskEnterCriticalFromISR+0x80>)
10004436:	6818      	ldr	r0, [r3, #0]
10004438:	b900      	cbnz	r0, 1000443c <vTaskEnterCriticalFromISR+0x8>
1000443a:	4770      	bx	lr
1000443c:	b570      	push	{r4, r5, r6, lr}
1000443e:	f7fd ff03 	bl	10002248 <ulSetInterruptMask>
10004442:	f04f 4250 	mov.w	r2, #3489660928	@ 0xd0000000
10004446:	4c1c      	ldr	r4, [pc, #112]	@ (100044b8 <vTaskEnterCriticalFromISR+0x84>)
10004448:	6813      	ldr	r3, [r2, #0]
1000444a:	f854 1023 	ldr.w	r1, [r4, r3, lsl #2]
1000444e:	b129      	cbz	r1, 1000445c <vTaskEnterCriticalFromISR+0x28>
10004450:	f854 2023 	ldr.w	r2, [r4, r3, lsl #2]
10004454:	3201      	adds	r2, #1
10004456:	f844 2023 	str.w	r2, [r4, r3, lsl #2]
1000445a:	bd70      	pop	{r4, r5, r6, pc}
1000445c:	4917      	ldr	r1, [pc, #92]	@ (100044bc <vTaskEnterCriticalFromISR+0x88>)
1000445e:	e8d1 5fcf 	ldaexb	r5, [r1]
10004462:	2601      	movs	r6, #1
10004464:	2d00      	cmp	r5, #0
10004466:	d101      	bne.n	1000446c <vTaskEnterCriticalFromISR+0x38>
10004468:	e8c1 6f45 	strexb	r5, r6, [r1]
1000446c:	f3bf 8f5f 	dmb	sy
10004470:	b94d      	cbnz	r5, 10004486 <vTaskEnterCriticalFromISR+0x52>
10004472:	4d13      	ldr	r5, [pc, #76]	@ (100044c0 <vTaskEnterCriticalFromISR+0x8c>)
10004474:	2201      	movs	r2, #1
10004476:	4913      	ldr	r1, [pc, #76]	@ (100044c4 <vTaskEnterCriticalFromISR+0x90>)
10004478:	700a      	strb	r2, [r1, #0]
1000447a:	f805 2013 	strb.w	r2, [r5, r3, lsl #1]
1000447e:	f04f 4350 	mov.w	r3, #3489660928	@ 0xd0000000
10004482:	681b      	ldr	r3, [r3, #0]
10004484:	e7e4      	b.n	10004450 <vTaskEnterCriticalFromISR+0x1c>
10004486:	4d0e      	ldr	r5, [pc, #56]	@ (100044c0 <vTaskEnterCriticalFromISR+0x8c>)
10004488:	f815 6013 	ldrb.w	r6, [r5, r3, lsl #1]
1000448c:	b95e      	cbnz	r6, 100044a6 <vTaskEnterCriticalFromISR+0x72>
1000448e:	e8d1 6fcf 	ldaexb	r6, [r1]
10004492:	2201      	movs	r2, #1
10004494:	2e00      	cmp	r6, #0
10004496:	d1fa      	bne.n	1000448e <vTaskEnterCriticalFromISR+0x5a>
10004498:	e8c1 2f46 	strexb	r6, r2, [r1]
1000449c:	2e00      	cmp	r6, #0
1000449e:	d1f6      	bne.n	1000448e <vTaskEnterCriticalFromISR+0x5a>
100044a0:	f3bf 8f5f 	dmb	sy
100044a4:	e7e6      	b.n	10004474 <vTaskEnterCriticalFromISR+0x40>
100044a6:	4907      	ldr	r1, [pc, #28]	@ (100044c4 <vTaskEnterCriticalFromISR+0x90>)
100044a8:	780b      	ldrb	r3, [r1, #0]
100044aa:	3301      	adds	r3, #1
100044ac:	b2db      	uxtb	r3, r3
100044ae:	700b      	strb	r3, [r1, #0]
100044b0:	6813      	ldr	r3, [r2, #0]
100044b2:	e7cd      	b.n	10004450 <vTaskEnterCriticalFromISR+0x1c>
100044b4:	20020c50 	.word	0x20020c50
100044b8:	20020ba0 	.word	0x20020ba0
100044bc:	2000085e 	.word	0x2000085e
100044c0:	20020b98 	.word	0x20020b98
100044c4:	20020b9c 	.word	0x20020b9c

100044c8 <vTaskExitCritical>:
100044c8:	4b1e      	ldr	r3, [pc, #120]	@ (10004544 <vTaskExitCritical+0x7c>)
100044ca:	681b      	ldr	r3, [r3, #0]
100044cc:	2b00      	cmp	r3, #0
100044ce:	d034      	beq.n	1000453a <vTaskExitCritical+0x72>
100044d0:	f04f 4150 	mov.w	r1, #3489660928	@ 0xd0000000
100044d4:	4b1c      	ldr	r3, [pc, #112]	@ (10004548 <vTaskExitCritical+0x80>)
100044d6:	680a      	ldr	r2, [r1, #0]
100044d8:	f853 0022 	ldr.w	r0, [r3, r2, lsl #2]
100044dc:	2800      	cmp	r0, #0
100044de:	d02c      	beq.n	1000453a <vTaskExitCritical+0x72>
100044e0:	f853 0022 	ldr.w	r0, [r3, r2, lsl #2]
100044e4:	3801      	subs	r0, #1
100044e6:	f843 0022 	str.w	r0, [r3, r2, lsl #2]
100044ea:	680a      	ldr	r2, [r1, #0]
100044ec:	f853 3022 	ldr.w	r3, [r3, r2, lsl #2]
100044f0:	bb1b      	cbnz	r3, 1000453a <vTaskExitCritical+0x72>
100044f2:	b510      	push	{r4, lr}
100044f4:	4915      	ldr	r1, [pc, #84]	@ (1000454c <vTaskExitCritical+0x84>)
100044f6:	4b16      	ldr	r3, [pc, #88]	@ (10004550 <vTaskExitCritical+0x88>)
100044f8:	f853 4022 	ldr.w	r4, [r3, r2, lsl #2]
100044fc:	780b      	ldrb	r3, [r1, #0]
100044fe:	3b01      	subs	r3, #1
10004500:	b2db      	uxtb	r3, r3
10004502:	700b      	strb	r3, [r1, #0]
10004504:	b92b      	cbnz	r3, 10004512 <vTaskExitCritical+0x4a>
10004506:	4813      	ldr	r0, [pc, #76]	@ (10004554 <vTaskExitCritical+0x8c>)
10004508:	f800 3012 	strb.w	r3, [r0, r2, lsl #1]
1000450c:	4a12      	ldr	r2, [pc, #72]	@ (10004558 <vTaskExitCritical+0x90>)
1000450e:	e8c2 3f8f 	stlb	r3, [r2]
10004512:	f04f 4250 	mov.w	r2, #3489660928	@ 0xd0000000
10004516:	784b      	ldrb	r3, [r1, #1]
10004518:	6810      	ldr	r0, [r2, #0]
1000451a:	3b01      	subs	r3, #1
1000451c:	b2db      	uxtb	r3, r3
1000451e:	704b      	strb	r3, [r1, #1]
10004520:	b933      	cbnz	r3, 10004530 <vTaskExitCritical+0x68>
10004522:	4a0c      	ldr	r2, [pc, #48]	@ (10004554 <vTaskExitCritical+0x8c>)
10004524:	490d      	ldr	r1, [pc, #52]	@ (1000455c <vTaskExitCritical+0x94>)
10004526:	eb02 0240 	add.w	r2, r2, r0, lsl #1
1000452a:	7053      	strb	r3, [r2, #1]
1000452c:	e8c1 3f8f 	stlb	r3, [r1]
10004530:	2000      	movs	r0, #0
10004532:	f7fd fe95 	bl	10002260 <vClearInterruptMask>
10004536:	b90c      	cbnz	r4, 1000453c <vTaskExitCritical+0x74>
10004538:	bd10      	pop	{r4, pc}
1000453a:	4770      	bx	lr
1000453c:	e8bd 4010 	ldmia.w	sp!, {r4, lr}
10004540:	f7fd bcae 	b.w	10001ea0 <vPortYield>
10004544:	20020c50 	.word	0x20020c50
10004548:	20020ba0 	.word	0x20020ba0
1000454c:	20020b9c 	.word	0x20020b9c
10004550:	20020c90 	.word	0x20020c90
10004554:	20020b98 	.word	0x20020b98
10004558:	2000085e 	.word	0x2000085e
1000455c:	2000085f 	.word	0x2000085f

10004560 <vTaskExitCriticalFromISR>:
10004560:	4b13      	ldr	r3, [pc, #76]	@ (100045b0 <vTaskExitCriticalFromISR+0x50>)
10004562:	681b      	ldr	r3, [r3, #0]
10004564:	b903      	cbnz	r3, 10004568 <vTaskExitCriticalFromISR+0x8>
10004566:	4770      	bx	lr
10004568:	f04f 4150 	mov.w	r1, #3489660928	@ 0xd0000000
1000456c:	4b11      	ldr	r3, [pc, #68]	@ (100045b4 <vTaskExitCriticalFromISR+0x54>)
1000456e:	680a      	ldr	r2, [r1, #0]
10004570:	b410      	push	{r4}
10004572:	f853 4022 	ldr.w	r4, [r3, r2, lsl #2]
10004576:	b1c4      	cbz	r4, 100045aa <vTaskExitCriticalFromISR+0x4a>
10004578:	f853 4022 	ldr.w	r4, [r3, r2, lsl #2]
1000457c:	3c01      	subs	r4, #1
1000457e:	f843 4022 	str.w	r4, [r3, r2, lsl #2]
10004582:	680a      	ldr	r2, [r1, #0]
10004584:	f853 3022 	ldr.w	r3, [r3, r2, lsl #2]
10004588:	b97b      	cbnz	r3, 100045aa <vTaskExitCriticalFromISR+0x4a>
1000458a:	490b      	ldr	r1, [pc, #44]	@ (100045b8 <vTaskExitCriticalFromISR+0x58>)
1000458c:	780b      	ldrb	r3, [r1, #0]
1000458e:	3b01      	subs	r3, #1
10004590:	b2db      	uxtb	r3, r3
10004592:	700b      	strb	r3, [r1, #0]
10004594:	b92b      	cbnz	r3, 100045a2 <vTaskExitCriticalFromISR+0x42>
10004596:	4c09      	ldr	r4, [pc, #36]	@ (100045bc <vTaskExitCriticalFromISR+0x5c>)
10004598:	4909      	ldr	r1, [pc, #36]	@ (100045c0 <vTaskExitCriticalFromISR+0x60>)
1000459a:	f804 3012 	strb.w	r3, [r4, r2, lsl #1]
1000459e:	e8c1 3f8f 	stlb	r3, [r1]
100045a2:	f85d 4b04 	ldr.w	r4, [sp], #4
100045a6:	f7fd be5b 	b.w	10002260 <vClearInterruptMask>
100045aa:	f85d 4b04 	ldr.w	r4, [sp], #4
100045ae:	4770      	bx	lr
100045b0:	20020c50 	.word	0x20020c50
100045b4:	20020ba0 	.word	0x20020ba0
100045b8:	20020b9c 	.word	0x20020b9c
100045bc:	20020b98 	.word	0x20020b98
100045c0:	2000085e 	.word	0x2000085e

100045c4 <uxTaskResetEventItemValue>:
100045c4:	b5f8      	push	{r3, r4, r5, r6, r7, lr}
100045c6:	f04f 4650 	mov.w	r6, #3489660928	@ 0xd0000000
100045ca:	f7fd fe3d 	bl	10002248 <ulSetInterruptMask>
100045ce:	4d0d      	ldr	r5, [pc, #52]	@ (10004604 <uxTaskResetEventItemValue+0x40>)
100045d0:	6833      	ldr	r3, [r6, #0]
100045d2:	f855 4023 	ldr.w	r4, [r5, r3, lsl #2]
100045d6:	f7fd fe43 	bl	10002260 <vClearInterruptMask>
100045da:	69e7      	ldr	r7, [r4, #28]
100045dc:	f7fd fe34 	bl	10002248 <ulSetInterruptMask>
100045e0:	6833      	ldr	r3, [r6, #0]
100045e2:	f855 4023 	ldr.w	r4, [r5, r3, lsl #2]
100045e6:	f7fd fe3b 	bl	10002260 <vClearInterruptMask>
100045ea:	6b24      	ldr	r4, [r4, #48]	@ 0x30
100045ec:	f7fd fe2c 	bl	10002248 <ulSetInterruptMask>
100045f0:	6833      	ldr	r3, [r6, #0]
100045f2:	f1c4 0420 	rsb	r4, r4, #32
100045f6:	f855 5023 	ldr.w	r5, [r5, r3, lsl #2]
100045fa:	f7fd fe31 	bl	10002260 <vClearInterruptMask>
100045fe:	4638      	mov	r0, r7
10004600:	61ec      	str	r4, [r5, #28]
10004602:	bdf8      	pop	{r3, r4, r5, r6, r7, pc}
10004604:	200008f0 	.word	0x200008f0

10004608 <prvTimerTask>:
10004608:	e92d 4ff0 	stmdb	sp!, {r4, r5, r6, r7, r8, r9, sl, fp, lr}
1000460c:	4fb7      	ldr	r7, [pc, #732]	@ (100048ec <prvTimerTask+0x2e4>)
1000460e:	f8df b2e4 	ldr.w	fp, [pc, #740]	@ 100048f4 <prvTimerTask+0x2ec>
10004612:	f8df 82e4 	ldr.w	r8, [pc, #740]	@ 100048f8 <prvTimerTask+0x2f0>
10004616:	4db6      	ldr	r5, [pc, #728]	@ (100048f0 <prvTimerTask+0x2e8>)
10004618:	b087      	sub	sp, #28
1000461a:	683b      	ldr	r3, [r7, #0]
1000461c:	681c      	ldr	r4, [r3, #0]
1000461e:	2c00      	cmp	r4, #0
10004620:	f040 811d 	bne.w	1000485e <prvTimerTask+0x256>
10004624:	f7fe ff96 	bl	10003554 <vTaskSuspendAll>
10004628:	f7fe ff9c 	bl	10003564 <xTaskGetTickCount>
1000462c:	f8db 3000 	ldr.w	r3, [fp]
10004630:	4681      	mov	r9, r0
10004632:	4283      	cmp	r3, r0
10004634:	d848      	bhi.n	100046c8 <prvTimerTask+0xc0>
10004636:	f8d8 3000 	ldr.w	r3, [r8]
1000463a:	f8cb 0000 	str.w	r0, [fp]
1000463e:	681a      	ldr	r2, [r3, #0]
10004640:	fab2 f282 	clz	r2, r2
10004644:	0952      	lsrs	r2, r2, #5
10004646:	6828      	ldr	r0, [r5, #0]
10004648:	eba4 0109 	sub.w	r1, r4, r9
1000464c:	f7fe fa78 	bl	10002b40 <vQueueWaitForMessageRestricted>
10004650:	f7ff fe4c 	bl	100042ec <xTaskResumeAll>
10004654:	2800      	cmp	r0, #0
10004656:	f000 8124 	beq.w	100048a2 <prvTimerTask+0x29a>
1000465a:	2300      	movs	r3, #0
1000465c:	e9cd 3302 	strd	r3, r3, [sp, #8]
10004660:	e9cd 3304 	strd	r3, r3, [sp, #16]
10004664:	2200      	movs	r2, #0
10004666:	6828      	ldr	r0, [r5, #0]
10004668:	a902      	add	r1, sp, #8
1000466a:	f7fe f953 	bl	10002914 <xQueueReceive>
1000466e:	2800      	cmp	r0, #0
10004670:	d0d3      	beq.n	1000461a <prvTimerTask+0x12>
10004672:	9b02      	ldr	r3, [sp, #8]
10004674:	9804      	ldr	r0, [sp, #16]
10004676:	2b00      	cmp	r3, #0
10004678:	f2c0 80e9 	blt.w	1000484e <prvTimerTask+0x246>
1000467c:	f8dd a010 	ldr.w	sl, [sp, #16]
10004680:	f8da 3014 	ldr.w	r3, [sl, #20]
10004684:	b11b      	cbz	r3, 1000468e <prvTimerTask+0x86>
10004686:	f10a 0004 	add.w	r0, sl, #4
1000468a:	f7fd ff59 	bl	10002540 <uxListRemove>
1000468e:	f7fe ff69 	bl	10003564 <xTaskGetTickCount>
10004692:	f8db 3000 	ldr.w	r3, [fp]
10004696:	9001      	str	r0, [sp, #4]
10004698:	4298      	cmp	r0, r3
1000469a:	d343      	bcc.n	10004724 <prvTimerTask+0x11c>
1000469c:	e9dd 2301 	ldrd	r2, r3, [sp, #4]
100046a0:	3b01      	subs	r3, #1
100046a2:	f8cb 2000 	str.w	r2, [fp]
100046a6:	2b08      	cmp	r3, #8
100046a8:	d8dc      	bhi.n	10004664 <prvTimerTask+0x5c>
100046aa:	e8df f003 	tbb	[pc, r3]
100046ae:	6161      	.short	0x6161
100046b0:	61c7a5c0 	.word	0x61c7a5c0
100046b4:	c061      	.short	0xc061
100046b6:	a5          	.byte	0xa5
100046b7:	00          	.byte	0x00
100046b8:	f022 0201 	bic.w	r2, r2, #1
100046bc:	f88a 2028 	strb.w	r2, [sl, #40]	@ 0x28
100046c0:	4650      	mov	r0, sl
100046c2:	f8da 3020 	ldr.w	r3, [sl, #32]
100046c6:	4798      	blx	r3
100046c8:	683b      	ldr	r3, [r7, #0]
100046ca:	681a      	ldr	r2, [r3, #0]
100046cc:	2a00      	cmp	r2, #0
100046ce:	f000 80d8 	beq.w	10004882 <prvTimerTask+0x27a>
100046d2:	68da      	ldr	r2, [r3, #12]
100046d4:	f8d2 a00c 	ldr.w	sl, [r2, #12]
100046d8:	6814      	ldr	r4, [r2, #0]
100046da:	f10a 0604 	add.w	r6, sl, #4
100046de:	4630      	mov	r0, r6
100046e0:	f7fd ff2e 	bl	10002540 <uxListRemove>
100046e4:	f89a 2028 	ldrb.w	r2, [sl, #40]	@ 0x28
100046e8:	0751      	lsls	r1, r2, #29
100046ea:	d5e5      	bpl.n	100046b8 <prvTimerTask+0xb0>
100046ec:	e003      	b.n	100046f6 <prvTimerTask+0xee>
100046ee:	4650      	mov	r0, sl
100046f0:	f8da 2020 	ldr.w	r2, [sl, #32]
100046f4:	4790      	blx	r2
100046f6:	f8da 2018 	ldr.w	r2, [sl, #24]
100046fa:	f8ca a010 	str.w	sl, [sl, #16]
100046fe:	1911      	adds	r1, r2, r4
10004700:	18a4      	adds	r4, r4, r2
10004702:	f8ca 1004 	str.w	r1, [sl, #4]
10004706:	d3f2      	bcc.n	100046ee <prvTimerTask+0xe6>
10004708:	4631      	mov	r1, r6
1000470a:	f8d8 0000 	ldr.w	r0, [r8]
1000470e:	f7fd feff 	bl	10002510 <vListInsert>
10004712:	e7d5      	b.n	100046c0 <prvTimerTask+0xb8>
10004714:	f021 0101 	bic.w	r1, r1, #1
10004718:	f889 1028 	strb.w	r1, [r9, #40]	@ 0x28
1000471c:	4648      	mov	r0, r9
1000471e:	f8d9 3020 	ldr.w	r3, [r9, #32]
10004722:	4798      	blx	r3
10004724:	683b      	ldr	r3, [r7, #0]
10004726:	6819      	ldr	r1, [r3, #0]
10004728:	2900      	cmp	r1, #0
1000472a:	f000 80b4 	beq.w	10004896 <prvTimerTask+0x28e>
1000472e:	68d9      	ldr	r1, [r3, #12]
10004730:	f8d1 900c 	ldr.w	r9, [r1, #12]
10004734:	680c      	ldr	r4, [r1, #0]
10004736:	f109 0604 	add.w	r6, r9, #4
1000473a:	4630      	mov	r0, r6
1000473c:	f7fd ff00 	bl	10002540 <uxListRemove>
10004740:	f899 1028 	ldrb.w	r1, [r9, #40]	@ 0x28
10004744:	0748      	lsls	r0, r1, #29
10004746:	d5e5      	bpl.n	10004714 <prvTimerTask+0x10c>
10004748:	e003      	b.n	10004752 <prvTimerTask+0x14a>
1000474a:	4648      	mov	r0, r9
1000474c:	f8d9 1020 	ldr.w	r1, [r9, #32]
10004750:	4788      	blx	r1
10004752:	f8d9 1018 	ldr.w	r1, [r9, #24]
10004756:	f8c9 9010 	str.w	r9, [r9, #16]
1000475a:	1908      	adds	r0, r1, r4
1000475c:	1864      	adds	r4, r4, r1
1000475e:	f8c9 0004 	str.w	r0, [r9, #4]
10004762:	d3f2      	bcc.n	1000474a <prvTimerTask+0x142>
10004764:	4631      	mov	r1, r6
10004766:	f8d8 0000 	ldr.w	r0, [r8]
1000476a:	f7fd fed1 	bl	10002510 <vListInsert>
1000476e:	e7d5      	b.n	1000471c <prvTimerTask+0x114>
10004770:	f89a 0028 	ldrb.w	r0, [sl, #40]	@ 0x28
10004774:	9903      	ldr	r1, [sp, #12]
10004776:	f8da 4018 	ldr.w	r4, [sl, #24]
1000477a:	9a01      	ldr	r2, [sp, #4]
1000477c:	190b      	adds	r3, r1, r4
1000477e:	f040 0601 	orr.w	r6, r0, #1
10004782:	f88a 6028 	strb.w	r6, [sl, #40]	@ 0x28
10004786:	bf2c      	ite	cs
10004788:	2601      	movcs	r6, #1
1000478a:	2600      	movcc	r6, #0
1000478c:	4293      	cmp	r3, r2
1000478e:	f8ca 3004 	str.w	r3, [sl, #4]
10004792:	f8ca a010 	str.w	sl, [sl, #16]
10004796:	f200 8087 	bhi.w	100048a8 <prvTimerTask+0x2a0>
1000479a:	1a51      	subs	r1, r2, r1
1000479c:	428c      	cmp	r4, r1
1000479e:	d83f      	bhi.n	10004820 <prvTimerTask+0x218>
100047a0:	0741      	lsls	r1, r0, #29
100047a2:	d412      	bmi.n	100047ca <prvTimerTask+0x1c2>
100047a4:	f020 0001 	bic.w	r0, r0, #1
100047a8:	f88a 0028 	strb.w	r0, [sl, #40]	@ 0x28
100047ac:	4650      	mov	r0, sl
100047ae:	f8da 3020 	ldr.w	r3, [sl, #32]
100047b2:	4798      	blx	r3
100047b4:	e756      	b.n	10004664 <prvTimerTask+0x5c>
100047b6:	428c      	cmp	r4, r1
100047b8:	f200 80c6 	bhi.w	10004948 <prvTimerTask+0x340>
100047bc:	f8da 3020 	ldr.w	r3, [sl, #32]
100047c0:	4650      	mov	r0, sl
100047c2:	4798      	blx	r3
100047c4:	4633      	mov	r3, r6
100047c6:	f8da 4018 	ldr.w	r4, [sl, #24]
100047ca:	9a01      	ldr	r2, [sp, #4]
100047cc:	18e6      	adds	r6, r4, r3
100047ce:	bf2c      	ite	cs
100047d0:	2001      	movcs	r0, #1
100047d2:	2000      	movcc	r0, #0
100047d4:	42b2      	cmp	r2, r6
100047d6:	eba2 0103 	sub.w	r1, r2, r3
100047da:	f8ca 6004 	str.w	r6, [sl, #4]
100047de:	f8ca a010 	str.w	sl, [sl, #16]
100047e2:	d2e8      	bcs.n	100047b6 <prvTimerTask+0x1ae>
100047e4:	429a      	cmp	r2, r3
100047e6:	d201      	bcs.n	100047ec <prvTimerTask+0x1e4>
100047e8:	2800      	cmp	r0, #0
100047ea:	d0e7      	beq.n	100047bc <prvTimerTask+0x1b4>
100047ec:	6838      	ldr	r0, [r7, #0]
100047ee:	f10a 0104 	add.w	r1, sl, #4
100047f2:	f7fd fe8d 	bl	10002510 <vListInsert>
100047f6:	e7d9      	b.n	100047ac <prvTimerTask+0x1a4>
100047f8:	9903      	ldr	r1, [sp, #12]
100047fa:	9a01      	ldr	r2, [sp, #4]
100047fc:	f89a 3028 	ldrb.w	r3, [sl, #40]	@ 0x28
10004800:	1888      	adds	r0, r1, r2
10004802:	f043 0301 	orr.w	r3, r3, #1
10004806:	4290      	cmp	r0, r2
10004808:	f88a 3028 	strb.w	r3, [sl, #40]	@ 0x28
1000480c:	f8ca 1018 	str.w	r1, [sl, #24]
10004810:	f8ca 0004 	str.w	r0, [sl, #4]
10004814:	f8ca a010 	str.w	sl, [sl, #16]
10004818:	d84b      	bhi.n	100048b2 <prvTimerTask+0x2aa>
1000481a:	2900      	cmp	r1, #0
1000481c:	f43f af22 	beq.w	10004664 <prvTimerTask+0x5c>
10004820:	f8d8 0000 	ldr.w	r0, [r8]
10004824:	f10a 0104 	add.w	r1, sl, #4
10004828:	f7fd fe72 	bl	10002510 <vListInsert>
1000482c:	e71a      	b.n	10004664 <prvTimerTask+0x5c>
1000482e:	f89a 3028 	ldrb.w	r3, [sl, #40]	@ 0x28
10004832:	f023 0301 	bic.w	r3, r3, #1
10004836:	f88a 3028 	strb.w	r3, [sl, #40]	@ 0x28
1000483a:	e713      	b.n	10004664 <prvTimerTask+0x5c>
1000483c:	f89a 3028 	ldrb.w	r3, [sl, #40]	@ 0x28
10004840:	079a      	lsls	r2, r3, #30
10004842:	d577      	bpl.n	10004934 <prvTimerTask+0x32c>
10004844:	f023 0301 	bic.w	r3, r3, #1
10004848:	f88a 3028 	strb.w	r3, [sl, #40]	@ 0x28
1000484c:	e70a      	b.n	10004664 <prvTimerTask+0x5c>
1000484e:	9b03      	ldr	r3, [sp, #12]
10004850:	9905      	ldr	r1, [sp, #20]
10004852:	4798      	blx	r3
10004854:	9b02      	ldr	r3, [sp, #8]
10004856:	2b00      	cmp	r3, #0
10004858:	f6ff af04 	blt.w	10004664 <prvTimerTask+0x5c>
1000485c:	e70e      	b.n	1000467c <prvTimerTask+0x74>
1000485e:	68db      	ldr	r3, [r3, #12]
10004860:	681c      	ldr	r4, [r3, #0]
10004862:	f7fe fe77 	bl	10003554 <vTaskSuspendAll>
10004866:	f7fe fe7d 	bl	10003564 <xTaskGetTickCount>
1000486a:	f8db 3000 	ldr.w	r3, [fp]
1000486e:	4681      	mov	r9, r0
10004870:	4283      	cmp	r3, r0
10004872:	f63f af29 	bhi.w	100046c8 <prvTimerTask+0xc0>
10004876:	4284      	cmp	r4, r0
10004878:	f8cb 0000 	str.w	r0, [fp]
1000487c:	d91f      	bls.n	100048be <prvTimerTask+0x2b6>
1000487e:	2200      	movs	r2, #0
10004880:	e6e1      	b.n	10004646 <prvTimerTask+0x3e>
10004882:	f8d8 2000 	ldr.w	r2, [r8]
10004886:	f8cb 9000 	str.w	r9, [fp]
1000488a:	603a      	str	r2, [r7, #0]
1000488c:	f8c8 3000 	str.w	r3, [r8]
10004890:	f7ff fd2c 	bl	100042ec <xTaskResumeAll>
10004894:	e6e1      	b.n	1000465a <prvTimerTask+0x52>
10004896:	f8d8 1000 	ldr.w	r1, [r8]
1000489a:	f8c8 3000 	str.w	r3, [r8]
1000489e:	6039      	str	r1, [r7, #0]
100048a0:	e6fc      	b.n	1000469c <prvTimerTask+0x94>
100048a2:	f7ff faab 	bl	10003dfc <vTaskYieldWithinAPI>
100048a6:	e6d8      	b.n	1000465a <prvTimerTask+0x52>
100048a8:	4291      	cmp	r1, r2
100048aa:	d902      	bls.n	100048b2 <prvTimerTask+0x2aa>
100048ac:	2e00      	cmp	r6, #0
100048ae:	f43f af77 	beq.w	100047a0 <prvTimerTask+0x198>
100048b2:	6838      	ldr	r0, [r7, #0]
100048b4:	f10a 0104 	add.w	r1, sl, #4
100048b8:	f7fd fe2a 	bl	10002510 <vListInsert>
100048bc:	e6d2      	b.n	10004664 <prvTimerTask+0x5c>
100048be:	f7ff fd15 	bl	100042ec <xTaskResumeAll>
100048c2:	683b      	ldr	r3, [r7, #0]
100048c4:	68db      	ldr	r3, [r3, #12]
100048c6:	68de      	ldr	r6, [r3, #12]
100048c8:	1d33      	adds	r3, r6, #4
100048ca:	4618      	mov	r0, r3
100048cc:	9301      	str	r3, [sp, #4]
100048ce:	f7fd fe37 	bl	10002540 <uxListRemove>
100048d2:	f896 2028 	ldrb.w	r2, [r6, #40]	@ 0x28
100048d6:	0753      	lsls	r3, r2, #29
100048d8:	d416      	bmi.n	10004908 <prvTimerTask+0x300>
100048da:	f022 0201 	bic.w	r2, r2, #1
100048de:	f886 2028 	strb.w	r2, [r6, #40]	@ 0x28
100048e2:	4630      	mov	r0, r6
100048e4:	6a33      	ldr	r3, [r6, #32]
100048e6:	4798      	blx	r3
100048e8:	e6b7      	b.n	1000465a <prvTimerTask+0x52>
100048ea:	bf00      	nop
100048ec:	200008f8 	.word	0x200008f8
100048f0:	20020c88 	.word	0x20020c88
100048f4:	20020c20 	.word	0x20020c20
100048f8:	20000908 	.word	0x20000908
100048fc:	4281      	cmp	r1, r0
100048fe:	d81d      	bhi.n	1000493c <prvTimerTask+0x334>
10004900:	4630      	mov	r0, r6
10004902:	6a31      	ldr	r1, [r6, #32]
10004904:	4788      	blx	r1
10004906:	4654      	mov	r4, sl
10004908:	69b1      	ldr	r1, [r6, #24]
1000490a:	eba9 0004 	sub.w	r0, r9, r4
1000490e:	eb14 0a01 	adds.w	sl, r4, r1
10004912:	bf2c      	ite	cs
10004914:	2301      	movcs	r3, #1
10004916:	2300      	movcc	r3, #0
10004918:	45ca      	cmp	sl, r9
1000491a:	f8c6 a004 	str.w	sl, [r6, #4]
1000491e:	6136      	str	r6, [r6, #16]
10004920:	d9ec      	bls.n	100048fc <prvTimerTask+0x2f4>
10004922:	454c      	cmp	r4, r9
10004924:	d901      	bls.n	1000492a <prvTimerTask+0x322>
10004926:	2b00      	cmp	r3, #0
10004928:	d0ea      	beq.n	10004900 <prvTimerTask+0x2f8>
1000492a:	9901      	ldr	r1, [sp, #4]
1000492c:	6838      	ldr	r0, [r7, #0]
1000492e:	f7fd fdef 	bl	10002510 <vListInsert>
10004932:	e7d6      	b.n	100048e2 <prvTimerTask+0x2da>
10004934:	4650      	mov	r0, sl
10004936:	f000 f91d 	bl	10004b74 <vPortFree>
1000493a:	e693      	b.n	10004664 <prvTimerTask+0x5c>
1000493c:	9901      	ldr	r1, [sp, #4]
1000493e:	f8d8 0000 	ldr.w	r0, [r8]
10004942:	f7fd fde5 	bl	10002510 <vListInsert>
10004946:	e7cc      	b.n	100048e2 <prvTimerTask+0x2da>
10004948:	f8d8 0000 	ldr.w	r0, [r8]
1000494c:	f10a 0104 	add.w	r1, sl, #4
10004950:	f7fd fdde 	bl	10002510 <vListInsert>
10004954:	e72a      	b.n	100047ac <prvTimerTask+0x1a4>
10004956:	bf00      	nop

10004958 <xTimerCreateTimerTask>:
10004958:	b5f0      	push	{r4, r5, r6, r7, lr}
1000495a:	4c19      	ldr	r4, [pc, #100]	@ (100049c0 <xTimerCreateTimerTask+0x68>)
1000495c:	b085      	sub	sp, #20
1000495e:	f7ff fa5f 	bl	10003e20 <vTaskEnterCritical>
10004962:	6825      	ldr	r5, [r4, #0]
10004964:	b19d      	cbz	r5, 1000498e <xTimerCreateTimerTask+0x36>
10004966:	f7ff fdaf 	bl	100044c8 <vTaskExitCritical>
1000496a:	6820      	ldr	r0, [r4, #0]
1000496c:	b168      	cbz	r0, 1000498a <xTimerCreateTimerTask+0x32>
1000496e:	f04f 35ff 	mov.w	r5, #4294967295
10004972:	241f      	movs	r4, #31
10004974:	4913      	ldr	r1, [pc, #76]	@ (100049c4 <xTimerCreateTimerTask+0x6c>)
10004976:	2300      	movs	r3, #0
10004978:	9102      	str	r1, [sp, #8]
1000497a:	f44f 6280 	mov.w	r2, #1024	@ 0x400
1000497e:	e9cd 4500 	strd	r4, r5, [sp]
10004982:	4911      	ldr	r1, [pc, #68]	@ (100049c8 <xTimerCreateTimerTask+0x70>)
10004984:	4811      	ldr	r0, [pc, #68]	@ (100049cc <xTimerCreateTimerTask+0x74>)
10004986:	f7ff fb69 	bl	1000405c <xTaskCreateAffinitySet>
1000498a:	b005      	add	sp, #20
1000498c:	bdf0      	pop	{r4, r5, r6, r7, pc}
1000498e:	4e10      	ldr	r6, [pc, #64]	@ (100049d0 <xTimerCreateTimerTask+0x78>)
10004990:	4f10      	ldr	r7, [pc, #64]	@ (100049d4 <xTimerCreateTimerTask+0x7c>)
10004992:	4630      	mov	r0, r6
10004994:	f7fd fd9e 	bl	100024d4 <vListInitialise>
10004998:	4638      	mov	r0, r7
1000499a:	f7fd fd9b 	bl	100024d4 <vListInitialise>
1000499e:	4a0e      	ldr	r2, [pc, #56]	@ (100049d8 <xTimerCreateTimerTask+0x80>)
100049a0:	4b0e      	ldr	r3, [pc, #56]	@ (100049dc <xTimerCreateTimerTask+0x84>)
100049a2:	6017      	str	r7, [r2, #0]
100049a4:	2110      	movs	r1, #16
100049a6:	462a      	mov	r2, r5
100049a8:	200a      	movs	r0, #10
100049aa:	601e      	str	r6, [r3, #0]
100049ac:	f7fd ff22 	bl	100027f4 <xQueueGenericCreate>
100049b0:	6020      	str	r0, [r4, #0]
100049b2:	2800      	cmp	r0, #0
100049b4:	d0d7      	beq.n	10004966 <xTimerCreateTimerTask+0xe>
100049b6:	490a      	ldr	r1, [pc, #40]	@ (100049e0 <xTimerCreateTimerTask+0x88>)
100049b8:	f7fe f82a 	bl	10002a10 <vQueueAddToRegistry>
100049bc:	e7d3      	b.n	10004966 <xTimerCreateTimerTask+0xe>
100049be:	bf00      	nop
100049c0:	20020c88 	.word	0x20020c88
100049c4:	20020c8c 	.word	0x20020c8c
100049c8:	10004f5c 	.word	0x10004f5c
100049cc:	10004609 	.word	0x10004609
100049d0:	20020bc0 	.word	0x20020bc0
100049d4:	20020bd4 	.word	0x20020bd4
100049d8:	20000908 	.word	0x20000908
100049dc:	200008f8 	.word	0x200008f8
100049e0:	10004f54 	.word	0x10004f54

100049e4 <xTimerPendFunctionCallFromISR>:
100049e4:	469c      	mov	ip, r3
100049e6:	b5f0      	push	{r4, r5, r6, r7, lr}
100049e8:	4607      	mov	r7, r0
100049ea:	460e      	mov	r6, r1
100049ec:	4615      	mov	r5, r2
100049ee:	f06f 0401 	mvn.w	r4, #1
100049f2:	4b07      	ldr	r3, [pc, #28]	@ (10004a10 <xTimerPendFunctionCallFromISR+0x2c>)
100049f4:	b085      	sub	sp, #20
100049f6:	4669      	mov	r1, sp
100049f8:	4662      	mov	r2, ip
100049fa:	6818      	ldr	r0, [r3, #0]
100049fc:	2300      	movs	r3, #0
100049fe:	e9cd 7601 	strd	r7, r6, [sp, #4]
10004a02:	9503      	str	r5, [sp, #12]
10004a04:	9400      	str	r4, [sp, #0]
10004a06:	f7fd ff35 	bl	10002874 <xQueueGenericSendFromISR>
10004a0a:	b005      	add	sp, #20
10004a0c:	bdf0      	pop	{r4, r5, r6, r7, pc}
10004a0e:	bf00      	nop
10004a10:	20020c88 	.word	0x20020c88

10004a14 <exception_set_exclusive_handler>:
10004a14:	b5f8      	push	{r3, r4, r5, r6, r7, lr}
10004a16:	4604      	mov	r4, r0
10004a18:	460d      	mov	r5, r1
10004a1a:	f3ef 8710 	mrs	r7, PRIMASK
10004a1e:	b672      	cpsid	i
10004a20:	4b0c      	ldr	r3, [pc, #48]	@ (10004a54 <exception_set_exclusive_handler+0x40>)
10004a22:	689b      	ldr	r3, [r3, #8]
10004a24:	f853 6020 	ldr.w	r6, [r3, r0, lsl #2]
10004a28:	42b1      	cmp	r1, r6
10004a2a:	d004      	beq.n	10004a36 <exception_set_exclusive_handler+0x22>
10004a2c:	4b0a      	ldr	r3, [pc, #40]	@ (10004a58 <exception_set_exclusive_handler+0x44>)
10004a2e:	429e      	cmp	r6, r3
10004a30:	d20b      	bcs.n	10004a4a <exception_set_exclusive_handler+0x36>
10004a32:	f7fc fcf5 	bl	10001420 <hard_assertion_failure>
10004a36:	4b07      	ldr	r3, [pc, #28]	@ (10004a54 <exception_set_exclusive_handler+0x40>)
10004a38:	689b      	ldr	r3, [r3, #8]
10004a3a:	f843 5024 	str.w	r5, [r3, r4, lsl #2]
10004a3e:	f3bf 8f5f 	dmb	sy
10004a42:	f387 8810 	msr	PRIMASK, r7
10004a46:	4630      	mov	r0, r6
10004a48:	bdf8      	pop	{r3, r4, r5, r6, r7, pc}
10004a4a:	4b04      	ldr	r3, [pc, #16]	@ (10004a5c <exception_set_exclusive_handler+0x48>)
10004a4c:	429e      	cmp	r6, r3
10004a4e:	d3f2      	bcc.n	10004a36 <exception_set_exclusive_handler+0x22>
10004a50:	e7ef      	b.n	10004a32 <exception_set_exclusive_handler+0x1e>
10004a52:	bf00      	nop
10004a54:	e000ed00 	.word	0xe000ed00
10004a58:	10000110 	.word	0x10000110
10004a5c:	1000011c 	.word	0x1000011c

10004a60 <pvPortMalloc>:
10004a60:	b5f8      	push	{r3, r4, r5, r6, r7, lr}
10004a62:	1e43      	subs	r3, r0, #1
10004a64:	330a      	adds	r3, #10
10004a66:	d811      	bhi.n	10004a8c <pvPortMalloc+0x2c>
10004a68:	f010 0307 	ands.w	r3, r0, #7
10004a6c:	f100 0408 	add.w	r4, r0, #8
10004a70:	d067      	beq.n	10004b42 <pvPortMalloc+0xe2>
10004a72:	f1a3 0209 	sub.w	r2, r3, #9
10004a76:	42a2      	cmp	r2, r4
10004a78:	d308      	bcc.n	10004a8c <pvPortMalloc+0x2c>
10004a7a:	3010      	adds	r0, #16
10004a7c:	1ac4      	subs	r4, r0, r3
10004a7e:	f7fe fd69 	bl	10003554 <vTaskSuspendAll>
10004a82:	4935      	ldr	r1, [pc, #212]	@ (10004b58 <pvPortMalloc+0xf8>)
10004a84:	4622      	mov	r2, r4
10004a86:	680d      	ldr	r5, [r1, #0]
10004a88:	bb1d      	cbnz	r5, 10004ad2 <pvPortMalloc+0x72>
10004a8a:	e00a      	b.n	10004aa2 <pvPortMalloc+0x42>
10004a8c:	f7fe fd62 	bl	10003554 <vTaskSuspendAll>
10004a90:	4931      	ldr	r1, [pc, #196]	@ (10004b58 <pvPortMalloc+0xf8>)
10004a92:	680a      	ldr	r2, [r1, #0]
10004a94:	b122      	cbz	r2, 10004aa0 <pvPortMalloc+0x40>
10004a96:	2500      	movs	r5, #0
10004a98:	f7ff fc28 	bl	100042ec <xTaskResumeAll>
10004a9c:	4628      	mov	r0, r5
10004a9e:	bdf8      	pop	{r3, r4, r5, r6, r7, pc}
10004aa0:	4614      	mov	r4, r2
10004aa2:	4b2e      	ldr	r3, [pc, #184]	@ (10004b5c <pvPortMalloc+0xfc>)
10004aa4:	4d2e      	ldr	r5, [pc, #184]	@ (10004b60 <pvPortMalloc+0x100>)
10004aa6:	0758      	lsls	r0, r3, #29
10004aa8:	bf1c      	itt	ne
10004aaa:	3307      	addne	r3, #7
10004aac:	f023 0307 	bicne.w	r3, r3, #7
10004ab0:	461e      	mov	r6, r3
10004ab2:	2000      	movs	r0, #0
10004ab4:	f025 0507 	bic.w	r5, r5, #7
10004ab8:	600d      	str	r5, [r1, #0]
10004aba:	492a      	ldr	r1, [pc, #168]	@ (10004b64 <pvPortMalloc+0x104>)
10004abc:	1aeb      	subs	r3, r5, r3
10004abe:	e9c1 6000 	strd	r6, r0, [r1]
10004ac2:	4929      	ldr	r1, [pc, #164]	@ (10004b68 <pvPortMalloc+0x108>)
10004ac4:	e9c5 0000 	strd	r0, r0, [r5]
10004ac8:	600b      	str	r3, [r1, #0]
10004aca:	e9c6 5300 	strd	r5, r3, [r6]
10004ace:	4927      	ldr	r1, [pc, #156]	@ (10004b6c <pvPortMalloc+0x10c>)
10004ad0:	600b      	str	r3, [r1, #0]
10004ad2:	2a00      	cmp	r2, #0
10004ad4:	dddf      	ble.n	10004a96 <pvPortMalloc+0x36>
10004ad6:	4f25      	ldr	r7, [pc, #148]	@ (10004b6c <pvPortMalloc+0x10c>)
10004ad8:	683e      	ldr	r6, [r7, #0]
10004ada:	42a6      	cmp	r6, r4
10004adc:	d3db      	bcc.n	10004a96 <pvPortMalloc+0x36>
10004ade:	4b21      	ldr	r3, [pc, #132]	@ (10004b64 <pvPortMalloc+0x104>)
10004ae0:	4618      	mov	r0, r3
10004ae2:	681b      	ldr	r3, [r3, #0]
10004ae4:	e003      	b.n	10004aee <pvPortMalloc+0x8e>
10004ae6:	681a      	ldr	r2, [r3, #0]
10004ae8:	b122      	cbz	r2, 10004af4 <pvPortMalloc+0x94>
10004aea:	4618      	mov	r0, r3
10004aec:	4613      	mov	r3, r2
10004aee:	6859      	ldr	r1, [r3, #4]
10004af0:	42a1      	cmp	r1, r4
10004af2:	d3f8      	bcc.n	10004ae6 <pvPortMalloc+0x86>
10004af4:	42ab      	cmp	r3, r5
10004af6:	d0ce      	beq.n	10004a96 <pvPortMalloc+0x36>
10004af8:	461d      	mov	r5, r3
10004afa:	eba1 0c04 	sub.w	ip, r1, r4
10004afe:	f855 2b08 	ldr.w	r2, [r5], #8
10004b02:	f1bc 0f10 	cmp.w	ip, #16
10004b06:	6002      	str	r2, [r0, #0]
10004b08:	d907      	bls.n	10004b1a <pvPortMalloc+0xba>
10004b0a:	4621      	mov	r1, r4
10004b0c:	eb03 0e04 	add.w	lr, r3, r4
10004b10:	f8ce c004 	str.w	ip, [lr, #4]
10004b14:	511a      	str	r2, [r3, r4]
10004b16:	f8c0 e000 	str.w	lr, [r0]
10004b1a:	2400      	movs	r4, #0
10004b1c:	4a12      	ldr	r2, [pc, #72]	@ (10004b68 <pvPortMalloc+0x108>)
10004b1e:	1a76      	subs	r6, r6, r1
10004b20:	6810      	ldr	r0, [r2, #0]
10004b22:	f041 4100 	orr.w	r1, r1, #2147483648	@ 0x80000000
10004b26:	4286      	cmp	r6, r0
10004b28:	4811      	ldr	r0, [pc, #68]	@ (10004b70 <pvPortMalloc+0x110>)
10004b2a:	bf38      	it	cc
10004b2c:	6016      	strcc	r6, [r2, #0]
10004b2e:	6802      	ldr	r2, [r0, #0]
10004b30:	6059      	str	r1, [r3, #4]
10004b32:	3201      	adds	r2, #1
10004b34:	601c      	str	r4, [r3, #0]
10004b36:	603e      	str	r6, [r7, #0]
10004b38:	6002      	str	r2, [r0, #0]
10004b3a:	f7ff fbd7 	bl	100042ec <xTaskResumeAll>
10004b3e:	4628      	mov	r0, r5
10004b40:	bdf8      	pop	{r3, r4, r5, r6, r7, pc}
10004b42:	f7fe fd07 	bl	10003554 <vTaskSuspendAll>
10004b46:	4904      	ldr	r1, [pc, #16]	@ (10004b58 <pvPortMalloc+0xf8>)
10004b48:	4622      	mov	r2, r4
10004b4a:	680d      	ldr	r5, [r1, #0]
10004b4c:	2d00      	cmp	r5, #0
10004b4e:	d0a8      	beq.n	10004aa2 <pvPortMalloc+0x42>
10004b50:	2c00      	cmp	r4, #0
10004b52:	dac0      	bge.n	10004ad6 <pvPortMalloc+0x76>
10004b54:	e79f      	b.n	10004a96 <pvPortMalloc+0x36>
10004b56:	bf00      	nop
10004b58:	20000900 	.word	0x20000900
10004b5c:	20000b98 	.word	0x20000b98
10004b60:	20020b90 	.word	0x20020b90
10004b64:	20020c54 	.word	0x20020c54
10004b68:	20020c24 	.word	0x20020c24
10004b6c:	20020c14 	.word	0x20020c14
10004b70:	20020c30 	.word	0x20020c30

10004b74 <vPortFree>:
10004b74:	b390      	cbz	r0, 10004bdc <vPortFree+0x68>
10004b76:	b538      	push	{r3, r4, r5, lr}
10004b78:	f850 3c04 	ldr.w	r3, [r0, #-4]
10004b7c:	4604      	mov	r4, r0
10004b7e:	2b00      	cmp	r3, #0
10004b80:	db00      	blt.n	10004b84 <vPortFree+0x10>
10004b82:	bd38      	pop	{r3, r4, r5, pc}
10004b84:	f850 2c08 	ldr.w	r2, [r0, #-8]
10004b88:	2a00      	cmp	r2, #0
10004b8a:	d1fa      	bne.n	10004b82 <vPortFree+0xe>
10004b8c:	f023 4300 	bic.w	r3, r3, #2147483648	@ 0x80000000
10004b90:	f840 3c04 	str.w	r3, [r0, #-4]
10004b94:	f1a0 0508 	sub.w	r5, r0, #8
10004b98:	f7fe fcdc 	bl	10003554 <vTaskSuspendAll>
10004b9c:	481a      	ldr	r0, [pc, #104]	@ (10004c08 <vPortFree+0x94>)
10004b9e:	f854 1c04 	ldr.w	r1, [r4, #-4]
10004ba2:	6802      	ldr	r2, [r0, #0]
10004ba4:	4b19      	ldr	r3, [pc, #100]	@ (10004c0c <vPortFree+0x98>)
10004ba6:	440a      	add	r2, r1
10004ba8:	6002      	str	r2, [r0, #0]
10004baa:	461a      	mov	r2, r3
10004bac:	681b      	ldr	r3, [r3, #0]
10004bae:	429d      	cmp	r5, r3
10004bb0:	d8fb      	bhi.n	10004baa <vPortFree+0x36>
10004bb2:	6850      	ldr	r0, [r2, #4]
10004bb4:	eb02 0c00 	add.w	ip, r2, r0
10004bb8:	4565      	cmp	r5, ip
10004bba:	d010      	beq.n	10004bde <vPortFree+0x6a>
10004bbc:	1868      	adds	r0, r5, r1
10004bbe:	4283      	cmp	r3, r0
10004bc0:	d01d      	beq.n	10004bfe <vPortFree+0x8a>
10004bc2:	f844 3c08 	str.w	r3, [r4, #-8]
10004bc6:	42aa      	cmp	r2, r5
10004bc8:	bf18      	it	ne
10004bca:	6015      	strne	r5, [r2, #0]
10004bcc:	4a10      	ldr	r2, [pc, #64]	@ (10004c10 <vPortFree+0x9c>)
10004bce:	6813      	ldr	r3, [r2, #0]
10004bd0:	3301      	adds	r3, #1
10004bd2:	6013      	str	r3, [r2, #0]
10004bd4:	e8bd 4038 	ldmia.w	sp!, {r3, r4, r5, lr}
10004bd8:	f7ff bb88 	b.w	100042ec <xTaskResumeAll>
10004bdc:	4770      	bx	lr
10004bde:	4401      	add	r1, r0
10004be0:	1850      	adds	r0, r2, r1
10004be2:	4283      	cmp	r3, r0
10004be4:	6051      	str	r1, [r2, #4]
10004be6:	d1f1      	bne.n	10004bcc <vPortFree+0x58>
10004be8:	480a      	ldr	r0, [pc, #40]	@ (10004c14 <vPortFree+0xa0>)
10004bea:	6800      	ldr	r0, [r0, #0]
10004bec:	4298      	cmp	r0, r3
10004bee:	d0ed      	beq.n	10004bcc <vPortFree+0x58>
10004bf0:	4615      	mov	r5, r2
10004bf2:	e9d3 4000 	ldrd	r4, r0, [r3]
10004bf6:	4401      	add	r1, r0
10004bf8:	e9c5 4100 	strd	r4, r1, [r5]
10004bfc:	e7e3      	b.n	10004bc6 <vPortFree+0x52>
10004bfe:	4805      	ldr	r0, [pc, #20]	@ (10004c14 <vPortFree+0xa0>)
10004c00:	6800      	ldr	r0, [r0, #0]
10004c02:	4283      	cmp	r3, r0
10004c04:	d1f5      	bne.n	10004bf2 <vPortFree+0x7e>
10004c06:	e7dc      	b.n	10004bc2 <vPortFree+0x4e>
10004c08:	20020c14 	.word	0x20020c14
10004c0c:	20020c54 	.word	0x20020c54
10004c10:	20020c34 	.word	0x20020c34
10004c14:	20000900 	.word	0x20000900

10004c18 <memset>:
10004c18:	0783      	lsls	r3, r0, #30
10004c1a:	b530      	push	{r4, r5, lr}
10004c1c:	d046      	beq.n	10004cac <memset+0x94>
10004c1e:	1884      	adds	r4, r0, r2
10004c20:	4684      	mov	ip, r0
10004c22:	e004      	b.n	10004c2e <memset+0x16>
10004c24:	f803 1b01 	strb.w	r1, [r3], #1
10004c28:	079d      	lsls	r5, r3, #30
10004c2a:	d004      	beq.n	10004c36 <memset+0x1e>
10004c2c:	469c      	mov	ip, r3
10004c2e:	45a4      	cmp	ip, r4
10004c30:	4663      	mov	r3, ip
10004c32:	d1f7      	bne.n	10004c24 <memset+0xc>
10004c34:	bd30      	pop	{r4, r5, pc}
10004c36:	3a01      	subs	r2, #1
10004c38:	4402      	add	r2, r0
10004c3a:	eba2 020c 	sub.w	r2, r2, ip
10004c3e:	2a03      	cmp	r2, #3
10004c40:	d929      	bls.n	10004c96 <memset+0x7e>
10004c42:	b2cc      	uxtb	r4, r1
10004c44:	2a0f      	cmp	r2, #15
10004c46:	eb04 2404 	add.w	r4, r4, r4, lsl #8
10004c4a:	eb04 4404 	add.w	r4, r4, r4, lsl #16
10004c4e:	d92f      	bls.n	10004cb0 <memset+0x98>
10004c50:	f1a2 0c10 	sub.w	ip, r2, #16
10004c54:	f103 0510 	add.w	r5, r3, #16
10004c58:	f02c 0c0f 	bic.w	ip, ip, #15
10004c5c:	44ac      	add	ip, r5
10004c5e:	e9c3 4400 	strd	r4, r4, [r3]
10004c62:	e9c3 4402 	strd	r4, r4, [r3, #8]
10004c66:	3310      	adds	r3, #16
10004c68:	4563      	cmp	r3, ip
10004c6a:	d1f8      	bne.n	10004c5e <memset+0x46>
10004c6c:	f012 0f0c 	tst.w	r2, #12
10004c70:	f002 0e0f 	and.w	lr, r2, #15
10004c74:	d018      	beq.n	10004ca8 <memset+0x90>
10004c76:	f02e 0c03 	bic.w	ip, lr, #3
10004c7a:	f1ae 0504 	sub.w	r5, lr, #4
10004c7e:	461a      	mov	r2, r3
10004c80:	449c      	add	ip, r3
10004c82:	f842 4b04 	str.w	r4, [r2], #4
10004c86:	4562      	cmp	r2, ip
10004c88:	d1fb      	bne.n	10004c82 <memset+0x6a>
10004c8a:	f025 0403 	bic.w	r4, r5, #3
10004c8e:	3304      	adds	r3, #4
10004c90:	f00e 0203 	and.w	r2, lr, #3
10004c94:	4423      	add	r3, r4
10004c96:	2a00      	cmp	r2, #0
10004c98:	d0cc      	beq.n	10004c34 <memset+0x1c>
10004c9a:	b2c9      	uxtb	r1, r1
10004c9c:	441a      	add	r2, r3
10004c9e:	f803 1b01 	strb.w	r1, [r3], #1
10004ca2:	4293      	cmp	r3, r2
10004ca4:	d1fb      	bne.n	10004c9e <memset+0x86>
10004ca6:	bd30      	pop	{r4, r5, pc}
10004ca8:	4672      	mov	r2, lr
10004caa:	e7f4      	b.n	10004c96 <memset+0x7e>
10004cac:	4603      	mov	r3, r0
10004cae:	e7c6      	b.n	10004c3e <memset+0x26>
10004cb0:	4696      	mov	lr, r2
10004cb2:	e7e0      	b.n	10004c76 <memset+0x5e>

10004cb4 <memcpy>:
10004cb4:	4684      	mov	ip, r0
10004cb6:	ea41 0300 	orr.w	r3, r1, r0
10004cba:	f013 0303 	ands.w	r3, r3, #3
10004cbe:	d149      	bne.n	10004d54 <memcpy+0xa0>
10004cc0:	3a40      	subs	r2, #64	@ 0x40
10004cc2:	d323      	bcc.n	10004d0c <memcpy+0x58>
10004cc4:	680b      	ldr	r3, [r1, #0]
10004cc6:	6003      	str	r3, [r0, #0]
10004cc8:	684b      	ldr	r3, [r1, #4]
10004cca:	6043      	str	r3, [r0, #4]
10004ccc:	688b      	ldr	r3, [r1, #8]
10004cce:	6083      	str	r3, [r0, #8]
10004cd0:	68cb      	ldr	r3, [r1, #12]
10004cd2:	60c3      	str	r3, [r0, #12]
10004cd4:	690b      	ldr	r3, [r1, #16]
10004cd6:	6103      	str	r3, [r0, #16]
10004cd8:	694b      	ldr	r3, [r1, #20]
10004cda:	6143      	str	r3, [r0, #20]
10004cdc:	698b      	ldr	r3, [r1, #24]
10004cde:	6183      	str	r3, [r0, #24]
10004ce0:	69cb      	ldr	r3, [r1, #28]
10004ce2:	61c3      	str	r3, [r0, #28]
10004ce4:	6a0b      	ldr	r3, [r1, #32]
10004ce6:	6203      	str	r3, [r0, #32]
10004ce8:	6a4b      	ldr	r3, [r1, #36]	@ 0x24
10004cea:	6243      	str	r3, [r0, #36]	@ 0x24
10004cec:	6a8b      	ldr	r3, [r1, #40]	@ 0x28
10004cee:	6283      	str	r3, [r0, #40]	@ 0x28
10004cf0:	6acb      	ldr	r3, [r1, #44]	@ 0x2c
10004cf2:	62c3      	str	r3, [r0, #44]	@ 0x2c
10004cf4:	6b0b      	ldr	r3, [r1, #48]	@ 0x30
10004cf6:	6303      	str	r3, [r0, #48]	@ 0x30
10004cf8:	6b4b      	ldr	r3, [r1, #52]	@ 0x34
10004cfa:	6343      	str	r3, [r0, #52]	@ 0x34
10004cfc:	6b8b      	ldr	r3, [r1, #56]	@ 0x38
10004cfe:	6383      	str	r3, [r0, #56]	@ 0x38
10004d00:	6bcb      	ldr	r3, [r1, #60]	@ 0x3c
10004d02:	63c3      	str	r3, [r0, #60]	@ 0x3c
10004d04:	3040      	adds	r0, #64	@ 0x40
10004d06:	3140      	adds	r1, #64	@ 0x40
10004d08:	3a40      	subs	r2, #64	@ 0x40
10004d0a:	d2db      	bcs.n	10004cc4 <memcpy+0x10>
10004d0c:	3230      	adds	r2, #48	@ 0x30
10004d0e:	d30b      	bcc.n	10004d28 <memcpy+0x74>
10004d10:	680b      	ldr	r3, [r1, #0]
10004d12:	6003      	str	r3, [r0, #0]
10004d14:	684b      	ldr	r3, [r1, #4]
10004d16:	6043      	str	r3, [r0, #4]
10004d18:	688b      	ldr	r3, [r1, #8]
10004d1a:	6083      	str	r3, [r0, #8]
10004d1c:	68cb      	ldr	r3, [r1, #12]
10004d1e:	60c3      	str	r3, [r0, #12]
10004d20:	3010      	adds	r0, #16
10004d22:	3110      	adds	r1, #16
10004d24:	3a10      	subs	r2, #16
10004d26:	d2f3      	bcs.n	10004d10 <memcpy+0x5c>
10004d28:	320c      	adds	r2, #12
10004d2a:	d305      	bcc.n	10004d38 <memcpy+0x84>
10004d2c:	f851 3b04 	ldr.w	r3, [r1], #4
10004d30:	f840 3b04 	str.w	r3, [r0], #4
10004d34:	3a04      	subs	r2, #4
10004d36:	d2f9      	bcs.n	10004d2c <memcpy+0x78>
10004d38:	3204      	adds	r2, #4
10004d3a:	d008      	beq.n	10004d4e <memcpy+0x9a>
10004d3c:	07d2      	lsls	r2, r2, #31
10004d3e:	bf1c      	itt	ne
10004d40:	f811 3b01 	ldrbne.w	r3, [r1], #1
10004d44:	f800 3b01 	strbne.w	r3, [r0], #1
10004d48:	d301      	bcc.n	10004d4e <memcpy+0x9a>
10004d4a:	880b      	ldrh	r3, [r1, #0]
10004d4c:	8003      	strh	r3, [r0, #0]
10004d4e:	4660      	mov	r0, ip
10004d50:	4770      	bx	lr
10004d52:	bf00      	nop
10004d54:	2a08      	cmp	r2, #8
10004d56:	d313      	bcc.n	10004d80 <memcpy+0xcc>
10004d58:	078b      	lsls	r3, r1, #30
10004d5a:	d0b1      	beq.n	10004cc0 <memcpy+0xc>
10004d5c:	f010 0303 	ands.w	r3, r0, #3
10004d60:	d0ae      	beq.n	10004cc0 <memcpy+0xc>
10004d62:	f1c3 0304 	rsb	r3, r3, #4
10004d66:	1ad2      	subs	r2, r2, r3
10004d68:	07db      	lsls	r3, r3, #31
10004d6a:	bf1c      	itt	ne
10004d6c:	f811 3b01 	ldrbne.w	r3, [r1], #1
10004d70:	f800 3b01 	strbne.w	r3, [r0], #1
10004d74:	d3a4      	bcc.n	10004cc0 <memcpy+0xc>
10004d76:	f831 3b02 	ldrh.w	r3, [r1], #2
10004d7a:	f820 3b02 	strh.w	r3, [r0], #2
10004d7e:	e79f      	b.n	10004cc0 <memcpy+0xc>
10004d80:	3a04      	subs	r2, #4
10004d82:	d3d9      	bcc.n	10004d38 <memcpy+0x84>
10004d84:	3a01      	subs	r2, #1
10004d86:	f811 3b01 	ldrb.w	r3, [r1], #1
10004d8a:	f800 3b01 	strb.w	r3, [r0], #1
10004d8e:	d2f9      	bcs.n	10004d84 <memcpy+0xd0>
10004d90:	780b      	ldrb	r3, [r1, #0]
10004d92:	7003      	strb	r3, [r0, #0]
10004d94:	784b      	ldrb	r3, [r1, #1]
10004d96:	7043      	strb	r3, [r0, #1]
10004d98:	788b      	ldrb	r3, [r1, #2]
10004d9a:	7083      	strb	r3, [r0, #2]
10004d9c:	4660      	mov	r0, ip
10004d9e:	4770      	bx	lr

10004da0 <strlen>:
10004da0:	f020 0103 	bic.w	r1, r0, #3
10004da4:	f010 0003 	ands.w	r0, r0, #3
10004da8:	f1c0 0000 	rsb	r0, r0, #0
10004dac:	f851 3b04 	ldr.w	r3, [r1], #4
10004db0:	f100 0c04 	add.w	ip, r0, #4
10004db4:	ea4f 0ccc 	mov.w	ip, ip, lsl #3
10004db8:	f06f 0200 	mvn.w	r2, #0
10004dbc:	bf1c      	itt	ne
10004dbe:	fa22 f20c 	lsrne.w	r2, r2, ip
10004dc2:	4313      	orrne	r3, r2
10004dc4:	f04f 0c01 	mov.w	ip, #1
10004dc8:	ea4c 2c0c 	orr.w	ip, ip, ip, lsl #8
10004dcc:	ea4c 4c0c 	orr.w	ip, ip, ip, lsl #16
10004dd0:	eba3 020c 	sub.w	r2, r3, ip
10004dd4:	ea22 0203 	bic.w	r2, r2, r3
10004dd8:	ea12 12cc 	ands.w	r2, r2, ip, lsl #7
10004ddc:	bf04      	itt	eq
10004dde:	f851 3b04 	ldreq.w	r3, [r1], #4
10004de2:	3004      	addeq	r0, #4
10004de4:	d0f4      	beq.n	10004dd0 <strlen+0x30>
10004de6:	f1c2 0100 	rsb	r1, r2, #0
10004dea:	ea02 0201 	and.w	r2, r2, r1
10004dee:	fab2 f282 	clz	r2, r2
10004df2:	f1c2 021f 	rsb	r2, r2, #31
10004df6:	eb00 00d2 	add.w	r0, r0, r2, lsr #3
10004dfa:	4770      	bx	lr

10004dfc <_fini>:
10004dfc:	b5f8      	push	{r3, r4, r5, r6, r7, lr}
10004dfe:	bf00      	nop

10004e00 <__mutex_exit_veneer>:
10004e00:	f85f f000 	ldr.w	pc, [pc]	@ 10004e04 <__mutex_exit_veneer+0x4>
10004e04:	200001bd 	.word	0x200001bd

10004e08 <____aeabi_ldivmod_veneer>:
10004e08:	f85f f000 	ldr.w	pc, [pc]	@ 10004e0c <____aeabi_ldivmod_veneer+0x4>
10004e0c:	200001f1 	.word	0x200001f1

10004e10 <__mutex_try_enter_block_until_veneer>:
10004e10:	f85f f000 	ldr.w	pc, [pc]	@ 10004e14 <__mutex_try_enter_block_until_veneer+0x4>
10004e14:	20000111 	.word	0x20000111

10004e18 <__pre_init_runtime_init_bootrom_reset>:
10004e18:	100014f9                                ....

10004e1c <__pre_init_runtime_init_early_resets>:
10004e1c:	1000146d                                m...

10004e20 <__pre_init_runtime_init_usb_power_down>:
10004e20:	100014a1                                ....

10004e24 <__pre_init_runtime_init_clocks>:
10004e24:	10001545                                E...

10004e28 <__pre_init_runtime_init_post_clock_resets>:
10004e28:	100014d9                                ....

10004e2c <__pre_init_runtime_init_boot_locks_reset>:
10004e2c:	100013d1                                ....

10004e30 <__pre_init_runtime_init_spin_locks_reset>:
10004e30:	10001521                                !...

10004e34 <__pre_init_runtime_init_bootrom_locking_enable>:
10004e34:	100013bd                                ....

10004e38 <__pre_init_runtime_init_mutex>:
10004e38:	100008ed                                ....

10004e3c <__pre_init_runtime_init_install_ram_vector_table>:
10004e3c:	10001525                                %...

10004e40 <__pre_init_runtime_init_default_alarm_pool>:
10004e40:	10000c65                                e...

10004e44 <__pre_init_first_per_core_initializer>:
10004e44:	1000141d                                ....

10004e48 <__pre_init_runtime_init_per_core_bootrom_reset>:
10004e48:	1000150d                                ....

10004e4c <__pre_init_runtime_init_per_core_enable_coprocessors>:
10004e4c:	100014bd                                ....

10004e50 <__pre_init_spinlock_set_extexclall>:
10004e50:	100004f5                                ....

10004e54 <__pre_init_runtime_init_per_core_irq_priorities>:
10004e54:	1000051d                                ....

10004e58 <__frame_dummy_init_array_entry>:
10004e58:	10000219 100021d5                       .....!..

Disassembly of section .data:

20000110 <mutex_try_enter_block_until>:
20000110:	e92d 41f0 	stmdb	sp!, {r4, r5, r6, r7, r8, lr}
20000114:	461f      	mov	r7, r3
20000116:	4604      	mov	r4, r0
20000118:	4616      	mov	r6, r2
2000011a:	6803      	ldr	r3, [r0, #0]
2000011c:	f3ef 8810 	mrs	r8, PRIMASK
20000120:	b672      	cpsid	i
20000122:	e8d3 1fcf 	ldaexb	r1, [r3]
20000126:	2201      	movs	r2, #1
20000128:	2900      	cmp	r1, #0
2000012a:	d1fa      	bne.n	20000122 <mutex_try_enter_block_until+0x12>
2000012c:	e8c3 2f41 	strexb	r1, r2, [r3]
20000130:	2900      	cmp	r1, #0
20000132:	d1f6      	bne.n	20000122 <mutex_try_enter_block_until+0x12>
20000134:	f3bf 8f5f 	dmb	sy
20000138:	6845      	ldr	r5, [r0, #4]
2000013a:	1c6b      	adds	r3, r5, #1
2000013c:	d00c      	beq.n	20000158 <mutex_try_enter_block_until+0x48>
2000013e:	2300      	movs	r3, #0
20000140:	6802      	ldr	r2, [r0, #0]
20000142:	e8c2 3f8f 	stlb	r3, [r2]
20000146:	f388 8810 	msr	PRIMASK, r8
2000014a:	f000 fa4d 	bl	200005e8 <__ulPortLockGetCurrentOwnerId_veneer>
2000014e:	42a8      	cmp	r0, r5
20000150:	d10e      	bne.n	20000170 <mutex_try_enter_block_until+0x60>
20000152:	2000      	movs	r0, #0
20000154:	e8bd 81f0 	ldmia.w	sp!, {r4, r5, r6, r7, r8, pc}
20000158:	f000 fa46 	bl	200005e8 <__ulPortLockGetCurrentOwnerId_veneer>
2000015c:	2300      	movs	r3, #0
2000015e:	6822      	ldr	r2, [r4, #0]
20000160:	6060      	str	r0, [r4, #4]
20000162:	e8c2 3f8f 	stlb	r3, [r2]
20000166:	f388 8810 	msr	PRIMASK, r8
2000016a:	2001      	movs	r0, #1
2000016c:	e8bd 81f0 	ldmia.w	sp!, {r4, r5, r6, r7, r8, pc}
20000170:	f000 fa3a 	bl	200005e8 <__ulPortLockGetCurrentOwnerId_veneer>
20000174:	4680      	mov	r8, r0
20000176:	e006      	b.n	20000186 <mutex_try_enter_block_until+0x76>
20000178:	4632      	mov	r2, r6
2000017a:	463b      	mov	r3, r7
2000017c:	4620      	mov	r0, r4
2000017e:	f000 fa2f 	bl	200005e0 <__xPortLockInternalSpinUnlockWithBestEffortWaitOrTimeout_veneer>
20000182:	2800      	cmp	r0, #0
20000184:	d1e5      	bne.n	20000152 <mutex_try_enter_block_until+0x42>
20000186:	6825      	ldr	r5, [r4, #0]
20000188:	f3ef 8110 	mrs	r1, PRIMASK
2000018c:	b672      	cpsid	i
2000018e:	e8d5 2fcf 	ldaexb	r2, [r5]
20000192:	2301      	movs	r3, #1
20000194:	2a00      	cmp	r2, #0
20000196:	d1fa      	bne.n	2000018e <mutex_try_enter_block_until+0x7e>
20000198:	e8c5 3f42 	strexb	r2, r3, [r5]
2000019c:	2a00      	cmp	r2, #0
2000019e:	d1f6      	bne.n	2000018e <mutex_try_enter_block_until+0x7e>
200001a0:	f3bf 8f5f 	dmb	sy
200001a4:	6863      	ldr	r3, [r4, #4]
200001a6:	3301      	adds	r3, #1
200001a8:	d1e6      	bne.n	20000178 <mutex_try_enter_block_until+0x68>
200001aa:	2300      	movs	r3, #0
200001ac:	6822      	ldr	r2, [r4, #0]
200001ae:	f8c4 8004 	str.w	r8, [r4, #4]
200001b2:	e8c2 3f8f 	stlb	r3, [r2]
200001b6:	f381 8810 	msr	PRIMASK, r1
200001ba:	e7d6      	b.n	2000016a <mutex_try_enter_block_until+0x5a>

200001bc <mutex_exit>:
200001bc:	b500      	push	{lr}
200001be:	6802      	ldr	r2, [r0, #0]
200001c0:	f3ef 8110 	mrs	r1, PRIMASK
200001c4:	b672      	cpsid	i
200001c6:	e8d2 efcf 	ldaexb	lr, [r2]
200001ca:	f05f 0c01 	movs.w	ip, #1
200001ce:	f1be 0f00 	cmp.w	lr, #0
200001d2:	d1f8      	bne.n	200001c6 <mutex_exit+0xa>
200001d4:	e8c2 cf4e 	strexb	lr, ip, [r2]
200001d8:	f1be 0f00 	cmp.w	lr, #0
200001dc:	d1f3      	bne.n	200001c6 <mutex_exit+0xa>
200001de:	f3bf 8f5f 	dmb	sy
200001e2:	f04f 32ff 	mov.w	r2, #4294967295
200001e6:	f85d eb04 	ldr.w	lr, [sp], #4
200001ea:	6042      	str	r2, [r0, #4]
200001ec:	f000 ba00 	b.w	200005f0 <__vPortLockInternalSpinUnlockWithNotify_veneer>

200001f0 <__aeabi_ldivmod>:
200001f0:	b97b      	cbnz	r3, 20000212 <__aeabi_ldivmod+0x22>
200001f2:	b972      	cbnz	r2, 20000212 <__aeabi_ldivmod+0x22>
200001f4:	2900      	cmp	r1, #0
200001f6:	bfbe      	ittt	lt
200001f8:	2000      	movlt	r0, #0
200001fa:	f04f 4100 	movlt.w	r1, #2147483648	@ 0x80000000
200001fe:	e006      	blt.n	2000020e <__aeabi_ldivmod+0x1e>
20000200:	bf08      	it	eq
20000202:	2800      	cmpeq	r0, #0
20000204:	bf1c      	itt	ne
20000206:	f06f 4100 	mvnne.w	r1, #2147483648	@ 0x80000000
2000020a:	f04f 30ff 	movne.w	r0, #4294967295
2000020e:	f000 b9e5 	b.w	200005dc <__aeabi_idiv0>
20000212:	f1ad 0c08 	sub.w	ip, sp, #8
20000216:	e96d ce04 	strd	ip, lr, [sp, #-16]!
2000021a:	2900      	cmp	r1, #0
2000021c:	db09      	blt.n	20000232 <__aeabi_ldivmod+0x42>
2000021e:	2b00      	cmp	r3, #0
20000220:	db1a      	blt.n	20000258 <__aeabi_ldivmod+0x68>
20000222:	f000 f835 	bl	20000290 <__udivmoddi4>
20000226:	f8dd e004 	ldr.w	lr, [sp, #4]
2000022a:	e9dd 2302 	ldrd	r2, r3, [sp, #8]
2000022e:	b004      	add	sp, #16
20000230:	4770      	bx	lr
20000232:	4240      	negs	r0, r0
20000234:	eb61 0141 	sbc.w	r1, r1, r1, lsl #1
20000238:	2b00      	cmp	r3, #0
2000023a:	db1b      	blt.n	20000274 <__aeabi_ldivmod+0x84>
2000023c:	f000 f828 	bl	20000290 <__udivmoddi4>
20000240:	f8dd e004 	ldr.w	lr, [sp, #4]
20000244:	e9dd 2302 	ldrd	r2, r3, [sp, #8]
20000248:	b004      	add	sp, #16
2000024a:	4240      	negs	r0, r0
2000024c:	eb61 0141 	sbc.w	r1, r1, r1, lsl #1
20000250:	4252      	negs	r2, r2
20000252:	eb63 0343 	sbc.w	r3, r3, r3, lsl #1
20000256:	4770      	bx	lr
20000258:	4252      	negs	r2, r2
2000025a:	eb63 0343 	sbc.w	r3, r3, r3, lsl #1
2000025e:	f000 f817 	bl	20000290 <__udivmoddi4>
20000262:	f8dd e004 	ldr.w	lr, [sp, #4]
20000266:	e9dd 2302 	ldrd	r2, r3, [sp, #8]
2000026a:	b004      	add	sp, #16
2000026c:	4240      	negs	r0, r0
2000026e:	eb61 0141 	sbc.w	r1, r1, r1, lsl #1
20000272:	4770      	bx	lr
20000274:	4252      	negs	r2, r2
20000276:	eb63 0343 	sbc.w	r3, r3, r3, lsl #1
2000027a:	f000 f809 	bl	20000290 <__udivmoddi4>
2000027e:	f8dd e004 	ldr.w	lr, [sp, #4]
20000282:	e9dd 2302 	ldrd	r2, r3, [sp, #8]
20000286:	b004      	add	sp, #16
20000288:	4252      	negs	r2, r2
2000028a:	eb63 0343 	sbc.w	r3, r3, r3, lsl #1
2000028e:	4770      	bx	lr

20000290 <__udivmoddi4>:
20000290:	e92d 4ff0 	stmdb	sp!, {r4, r5, r6, r7, r8, r9, sl, fp, lr}
20000294:	468c      	mov	ip, r1
20000296:	9e09      	ldr	r6, [sp, #36]	@ 0x24
20000298:	4604      	mov	r4, r0
2000029a:	460f      	mov	r7, r1
2000029c:	2b00      	cmp	r3, #0
2000029e:	d148      	bne.n	20000332 <__udivmoddi4+0xa2>
200002a0:	428a      	cmp	r2, r1
200002a2:	4615      	mov	r5, r2
200002a4:	d95e      	bls.n	20000364 <__udivmoddi4+0xd4>
200002a6:	fab2 f382 	clz	r3, r2
200002aa:	b13b      	cbz	r3, 200002bc <__udivmoddi4+0x2c>
200002ac:	f1c3 0220 	rsb	r2, r3, #32
200002b0:	409f      	lsls	r7, r3
200002b2:	409d      	lsls	r5, r3
200002b4:	409c      	lsls	r4, r3
200002b6:	fa20 f202 	lsr.w	r2, r0, r2
200002ba:	4317      	orrs	r7, r2
200002bc:	ea4f 4e15 	mov.w	lr, r5, lsr #16
200002c0:	fa1f fc85 	uxth.w	ip, r5
200002c4:	0c22      	lsrs	r2, r4, #16
200002c6:	fbb7 f1fe 	udiv	r1, r7, lr
200002ca:	fb0e 7711 	mls	r7, lr, r1, r7
200002ce:	fb01 f00c 	mul.w	r0, r1, ip
200002d2:	ea42 4207 	orr.w	r2, r2, r7, lsl #16
200002d6:	4290      	cmp	r0, r2
200002d8:	d907      	bls.n	200002ea <__udivmoddi4+0x5a>
200002da:	18aa      	adds	r2, r5, r2
200002dc:	f101 37ff 	add.w	r7, r1, #4294967295
200002e0:	d202      	bcs.n	200002e8 <__udivmoddi4+0x58>
200002e2:	4290      	cmp	r0, r2
200002e4:	f200 8158 	bhi.w	20000598 <__udivmoddi4+0x308>
200002e8:	4639      	mov	r1, r7
200002ea:	1a12      	subs	r2, r2, r0
200002ec:	b2a4      	uxth	r4, r4
200002ee:	fbb2 f0fe 	udiv	r0, r2, lr
200002f2:	fb0e 2210 	mls	r2, lr, r0, r2
200002f6:	fb00 fc0c 	mul.w	ip, r0, ip
200002fa:	ea44 4402 	orr.w	r4, r4, r2, lsl #16
200002fe:	45a4      	cmp	ip, r4
20000300:	d90b      	bls.n	2000031a <__udivmoddi4+0x8a>
20000302:	192c      	adds	r4, r5, r4
20000304:	f100 32ff 	add.w	r2, r0, #4294967295
20000308:	bf2c      	ite	cs
2000030a:	2701      	movcs	r7, #1
2000030c:	2700      	movcc	r7, #0
2000030e:	45a4      	cmp	ip, r4
20000310:	d902      	bls.n	20000318 <__udivmoddi4+0x88>
20000312:	2f00      	cmp	r7, #0
20000314:	f000 8143 	beq.w	2000059e <__udivmoddi4+0x30e>
20000318:	4610      	mov	r0, r2
2000031a:	ea40 4001 	orr.w	r0, r0, r1, lsl #16
2000031e:	eba4 040c 	sub.w	r4, r4, ip
20000322:	2100      	movs	r1, #0
20000324:	b11e      	cbz	r6, 2000032e <__udivmoddi4+0x9e>
20000326:	40dc      	lsrs	r4, r3
20000328:	2300      	movs	r3, #0
2000032a:	e9c6 4300 	strd	r4, r3, [r6]
2000032e:	e8bd 8ff0 	ldmia.w	sp!, {r4, r5, r6, r7, r8, r9, sl, fp, pc}
20000332:	428b      	cmp	r3, r1
20000334:	d906      	bls.n	20000344 <__udivmoddi4+0xb4>
20000336:	b10e      	cbz	r6, 2000033c <__udivmoddi4+0xac>
20000338:	e9c6 0100 	strd	r0, r1, [r6]
2000033c:	2100      	movs	r1, #0
2000033e:	4608      	mov	r0, r1
20000340:	e8bd 8ff0 	ldmia.w	sp!, {r4, r5, r6, r7, r8, r9, sl, fp, pc}
20000344:	fab3 f183 	clz	r1, r3
20000348:	2900      	cmp	r1, #0
2000034a:	d151      	bne.n	200003f0 <__udivmoddi4+0x160>
2000034c:	4563      	cmp	r3, ip
2000034e:	f0c0 8116 	bcc.w	2000057e <__udivmoddi4+0x2ee>
20000352:	4282      	cmp	r2, r0
20000354:	f240 8113 	bls.w	2000057e <__udivmoddi4+0x2ee>
20000358:	4608      	mov	r0, r1
2000035a:	2e00      	cmp	r6, #0
2000035c:	d0e7      	beq.n	2000032e <__udivmoddi4+0x9e>
2000035e:	e9c6 4700 	strd	r4, r7, [r6]
20000362:	e7e4      	b.n	2000032e <__udivmoddi4+0x9e>
20000364:	2a00      	cmp	r2, #0
20000366:	f000 80af 	beq.w	200004c8 <__udivmoddi4+0x238>
2000036a:	fab2 f382 	clz	r3, r2
2000036e:	2b00      	cmp	r3, #0
20000370:	f040 80c2 	bne.w	200004f8 <__udivmoddi4+0x268>
20000374:	1a8a      	subs	r2, r1, r2
20000376:	ea4f 4e15 	mov.w	lr, r5, lsr #16
2000037a:	b2af      	uxth	r7, r5
2000037c:	2101      	movs	r1, #1
2000037e:	0c20      	lsrs	r0, r4, #16
20000380:	fbb2 fcfe 	udiv	ip, r2, lr
20000384:	fb0e 221c 	mls	r2, lr, ip, r2
20000388:	ea40 4202 	orr.w	r2, r0, r2, lsl #16
2000038c:	fb07 f00c 	mul.w	r0, r7, ip
20000390:	4290      	cmp	r0, r2
20000392:	d90e      	bls.n	200003b2 <__udivmoddi4+0x122>
20000394:	18aa      	adds	r2, r5, r2
20000396:	f10c 38ff 	add.w	r8, ip, #4294967295
2000039a:	bf2c      	ite	cs
2000039c:	f04f 0901 	movcs.w	r9, #1
200003a0:	f04f 0900 	movcc.w	r9, #0
200003a4:	4290      	cmp	r0, r2
200003a6:	d903      	bls.n	200003b0 <__udivmoddi4+0x120>
200003a8:	f1b9 0f00 	cmp.w	r9, #0
200003ac:	f000 80f0 	beq.w	20000590 <__udivmoddi4+0x300>
200003b0:	46c4      	mov	ip, r8
200003b2:	1a12      	subs	r2, r2, r0
200003b4:	b2a4      	uxth	r4, r4
200003b6:	fbb2 f0fe 	udiv	r0, r2, lr
200003ba:	fb0e 2210 	mls	r2, lr, r0, r2
200003be:	fb00 f707 	mul.w	r7, r0, r7
200003c2:	ea44 4402 	orr.w	r4, r4, r2, lsl #16
200003c6:	42a7      	cmp	r7, r4
200003c8:	d90e      	bls.n	200003e8 <__udivmoddi4+0x158>
200003ca:	192c      	adds	r4, r5, r4
200003cc:	f100 32ff 	add.w	r2, r0, #4294967295
200003d0:	bf2c      	ite	cs
200003d2:	f04f 0e01 	movcs.w	lr, #1
200003d6:	f04f 0e00 	movcc.w	lr, #0
200003da:	42a7      	cmp	r7, r4
200003dc:	d903      	bls.n	200003e6 <__udivmoddi4+0x156>
200003de:	f1be 0f00 	cmp.w	lr, #0
200003e2:	f000 80d2 	beq.w	2000058a <__udivmoddi4+0x2fa>
200003e6:	4610      	mov	r0, r2
200003e8:	1be4      	subs	r4, r4, r7
200003ea:	ea40 400c 	orr.w	r0, r0, ip, lsl #16
200003ee:	e799      	b.n	20000324 <__udivmoddi4+0x94>
200003f0:	f1c1 0520 	rsb	r5, r1, #32
200003f4:	408b      	lsls	r3, r1
200003f6:	fa0c f401 	lsl.w	r4, ip, r1
200003fa:	fa00 f901 	lsl.w	r9, r0, r1
200003fe:	fa22 f705 	lsr.w	r7, r2, r5
20000402:	fa2c fc05 	lsr.w	ip, ip, r5
20000406:	408a      	lsls	r2, r1
20000408:	431f      	orrs	r7, r3
2000040a:	fa20 f305 	lsr.w	r3, r0, r5
2000040e:	0c38      	lsrs	r0, r7, #16
20000410:	4323      	orrs	r3, r4
20000412:	fa1f fe87 	uxth.w	lr, r7
20000416:	0c1c      	lsrs	r4, r3, #16
20000418:	fbbc f8f0 	udiv	r8, ip, r0
2000041c:	fb00 cc18 	mls	ip, r0, r8, ip
20000420:	ea44 440c 	orr.w	r4, r4, ip, lsl #16
20000424:	fb08 fc0e 	mul.w	ip, r8, lr
20000428:	45a4      	cmp	ip, r4
2000042a:	d90e      	bls.n	2000044a <__udivmoddi4+0x1ba>
2000042c:	193c      	adds	r4, r7, r4
2000042e:	f108 3aff 	add.w	sl, r8, #4294967295
20000432:	bf2c      	ite	cs
20000434:	f04f 0b01 	movcs.w	fp, #1
20000438:	f04f 0b00 	movcc.w	fp, #0
2000043c:	45a4      	cmp	ip, r4
2000043e:	d903      	bls.n	20000448 <__udivmoddi4+0x1b8>
20000440:	f1bb 0f00 	cmp.w	fp, #0
20000444:	f000 80b8 	beq.w	200005b8 <__udivmoddi4+0x328>
20000448:	46d0      	mov	r8, sl
2000044a:	eba4 040c 	sub.w	r4, r4, ip
2000044e:	fa1f fc83 	uxth.w	ip, r3
20000452:	fbb4 f3f0 	udiv	r3, r4, r0
20000456:	fb00 4413 	mls	r4, r0, r3, r4
2000045a:	fb03 fe0e 	mul.w	lr, r3, lr
2000045e:	ea4c 4404 	orr.w	r4, ip, r4, lsl #16
20000462:	45a6      	cmp	lr, r4
20000464:	d90e      	bls.n	20000484 <__udivmoddi4+0x1f4>
20000466:	193c      	adds	r4, r7, r4
20000468:	f103 30ff 	add.w	r0, r3, #4294967295
2000046c:	bf2c      	ite	cs
2000046e:	f04f 0c01 	movcs.w	ip, #1
20000472:	f04f 0c00 	movcc.w	ip, #0
20000476:	45a6      	cmp	lr, r4
20000478:	d903      	bls.n	20000482 <__udivmoddi4+0x1f2>
2000047a:	f1bc 0f00 	cmp.w	ip, #0
2000047e:	f000 809f 	beq.w	200005c0 <__udivmoddi4+0x330>
20000482:	4603      	mov	r3, r0
20000484:	ea43 4008 	orr.w	r0, r3, r8, lsl #16
20000488:	eba4 040e 	sub.w	r4, r4, lr
2000048c:	fba0 ec02 	umull	lr, ip, r0, r2
20000490:	4564      	cmp	r4, ip
20000492:	4673      	mov	r3, lr
20000494:	46e0      	mov	r8, ip
20000496:	d302      	bcc.n	2000049e <__udivmoddi4+0x20e>
20000498:	d107      	bne.n	200004aa <__udivmoddi4+0x21a>
2000049a:	45f1      	cmp	r9, lr
2000049c:	d205      	bcs.n	200004aa <__udivmoddi4+0x21a>
2000049e:	ebbe 0302 	subs.w	r3, lr, r2
200004a2:	eb6c 0c07 	sbc.w	ip, ip, r7
200004a6:	3801      	subs	r0, #1
200004a8:	46e0      	mov	r8, ip
200004aa:	b15e      	cbz	r6, 200004c4 <__udivmoddi4+0x234>
200004ac:	ebb9 0203 	subs.w	r2, r9, r3
200004b0:	eb64 0408 	sbc.w	r4, r4, r8
200004b4:	fa04 f505 	lsl.w	r5, r4, r5
200004b8:	fa22 f301 	lsr.w	r3, r2, r1
200004bc:	40cc      	lsrs	r4, r1
200004be:	431d      	orrs	r5, r3
200004c0:	e9c6 5400 	strd	r5, r4, [r6]
200004c4:	2100      	movs	r1, #0
200004c6:	e732      	b.n	2000032e <__udivmoddi4+0x9e>
200004c8:	0842      	lsrs	r2, r0, #1
200004ca:	462f      	mov	r7, r5
200004cc:	084b      	lsrs	r3, r1, #1
200004ce:	46ac      	mov	ip, r5
200004d0:	ea42 72c1 	orr.w	r2, r2, r1, lsl #31
200004d4:	46ae      	mov	lr, r5
200004d6:	07c4      	lsls	r4, r0, #31
200004d8:	0c11      	lsrs	r1, r2, #16
200004da:	b292      	uxth	r2, r2
200004dc:	ea41 4103 	orr.w	r1, r1, r3, lsl #16
200004e0:	ea42 4201 	orr.w	r2, r2, r1, lsl #16
200004e4:	fbb1 f1f5 	udiv	r1, r1, r5
200004e8:	fbb3 f0f5 	udiv	r0, r3, r5
200004ec:	231f      	movs	r3, #31
200004ee:	eba2 020c 	sub.w	r2, r2, ip
200004f2:	ea41 4100 	orr.w	r1, r1, r0, lsl #16
200004f6:	e742      	b.n	2000037e <__udivmoddi4+0xee>
200004f8:	409d      	lsls	r5, r3
200004fa:	f1c3 0220 	rsb	r2, r3, #32
200004fe:	4099      	lsls	r1, r3
20000500:	409c      	lsls	r4, r3
20000502:	fa2c fc02 	lsr.w	ip, ip, r2
20000506:	ea4f 4e15 	mov.w	lr, r5, lsr #16
2000050a:	fa20 f202 	lsr.w	r2, r0, r2
2000050e:	b2af      	uxth	r7, r5
20000510:	fbbc f8fe 	udiv	r8, ip, lr
20000514:	430a      	orrs	r2, r1
20000516:	fb0e cc18 	mls	ip, lr, r8, ip
2000051a:	0c11      	lsrs	r1, r2, #16
2000051c:	ea41 410c 	orr.w	r1, r1, ip, lsl #16
20000520:	fb08 fc07 	mul.w	ip, r8, r7
20000524:	458c      	cmp	ip, r1
20000526:	d950      	bls.n	200005ca <__udivmoddi4+0x33a>
20000528:	1869      	adds	r1, r5, r1
2000052a:	f108 30ff 	add.w	r0, r8, #4294967295
2000052e:	bf2c      	ite	cs
20000530:	f04f 0901 	movcs.w	r9, #1
20000534:	f04f 0900 	movcc.w	r9, #0
20000538:	458c      	cmp	ip, r1
2000053a:	d902      	bls.n	20000542 <__udivmoddi4+0x2b2>
2000053c:	f1b9 0f00 	cmp.w	r9, #0
20000540:	d030      	beq.n	200005a4 <__udivmoddi4+0x314>
20000542:	eba1 010c 	sub.w	r1, r1, ip
20000546:	fbb1 f8fe 	udiv	r8, r1, lr
2000054a:	fb08 fc07 	mul.w	ip, r8, r7
2000054e:	fb0e 1118 	mls	r1, lr, r8, r1
20000552:	b292      	uxth	r2, r2
20000554:	ea42 4201 	orr.w	r2, r2, r1, lsl #16
20000558:	4562      	cmp	r2, ip
2000055a:	d234      	bcs.n	200005c6 <__udivmoddi4+0x336>
2000055c:	18aa      	adds	r2, r5, r2
2000055e:	f108 31ff 	add.w	r1, r8, #4294967295
20000562:	bf2c      	ite	cs
20000564:	f04f 0901 	movcs.w	r9, #1
20000568:	f04f 0900 	movcc.w	r9, #0
2000056c:	4562      	cmp	r2, ip
2000056e:	d2be      	bcs.n	200004ee <__udivmoddi4+0x25e>
20000570:	f1b9 0f00 	cmp.w	r9, #0
20000574:	d1bb      	bne.n	200004ee <__udivmoddi4+0x25e>
20000576:	f1a8 0102 	sub.w	r1, r8, #2
2000057a:	442a      	add	r2, r5
2000057c:	e7b7      	b.n	200004ee <__udivmoddi4+0x25e>
2000057e:	1a84      	subs	r4, r0, r2
20000580:	eb6c 0203 	sbc.w	r2, ip, r3
20000584:	2001      	movs	r0, #1
20000586:	4617      	mov	r7, r2
20000588:	e6e7      	b.n	2000035a <__udivmoddi4+0xca>
2000058a:	442c      	add	r4, r5
2000058c:	3802      	subs	r0, #2
2000058e:	e72b      	b.n	200003e8 <__udivmoddi4+0x158>
20000590:	f1ac 0c02 	sub.w	ip, ip, #2
20000594:	442a      	add	r2, r5
20000596:	e70c      	b.n	200003b2 <__udivmoddi4+0x122>
20000598:	3902      	subs	r1, #2
2000059a:	442a      	add	r2, r5
2000059c:	e6a5      	b.n	200002ea <__udivmoddi4+0x5a>
2000059e:	442c      	add	r4, r5
200005a0:	3802      	subs	r0, #2
200005a2:	e6ba      	b.n	2000031a <__udivmoddi4+0x8a>
200005a4:	eba5 0c0c 	sub.w	ip, r5, ip
200005a8:	f1a8 0002 	sub.w	r0, r8, #2
200005ac:	4461      	add	r1, ip
200005ae:	fbb1 f8fe 	udiv	r8, r1, lr
200005b2:	fb08 fc07 	mul.w	ip, r8, r7
200005b6:	e7ca      	b.n	2000054e <__udivmoddi4+0x2be>
200005b8:	f1a8 0802 	sub.w	r8, r8, #2
200005bc:	443c      	add	r4, r7
200005be:	e744      	b.n	2000044a <__udivmoddi4+0x1ba>
200005c0:	3b02      	subs	r3, #2
200005c2:	443c      	add	r4, r7
200005c4:	e75e      	b.n	20000484 <__udivmoddi4+0x1f4>
200005c6:	4641      	mov	r1, r8
200005c8:	e791      	b.n	200004ee <__udivmoddi4+0x25e>
200005ca:	eba1 010c 	sub.w	r1, r1, ip
200005ce:	4640      	mov	r0, r8
200005d0:	fbb1 f8fe 	udiv	r8, r1, lr
200005d4:	fb08 fc07 	mul.w	ip, r8, r7
200005d8:	e7b9      	b.n	2000054e <__udivmoddi4+0x2be>
200005da:	bf00      	nop

200005dc <__aeabi_idiv0>:
200005dc:	4770      	bx	lr
200005de:	bf00      	nop

200005e0 <__xPortLockInternalSpinUnlockWithBestEffortWaitOrTimeout_veneer>:
200005e0:	f85f f000 	ldr.w	pc, [pc]	@ 200005e4 <__xPortLockInternalSpinUnlockWithBestEffortWaitOrTimeout_veneer+0x4>
200005e4:	100020e1 	.word	0x100020e1

200005e8 <__ulPortLockGetCurrentOwnerId_veneer>:
200005e8:	f85f f000 	ldr.w	pc, [pc]	@ 200005ec <__ulPortLockGetCurrentOwnerId_veneer+0x4>
200005ec:	10001fc1 	.word	0x10001fc1

200005f0 <__vPortLockInternalSpinUnlockWithNotify_veneer>:
200005f0:	f85f f000 	ldr.w	pc, [pc]	@ 200005f4 <__vPortLockInternalSpinUnlockWithNotify_veneer+0x4>
200005f4:	10002051 	.word	0x10002051

200005f8 <striped_spin_lock_num>:
200005f8:	00000010                                ....

200005fc <irq_handler_chain_slots>:
200005fc:	00000000 	.word	0x00000000
20000600:	00010000 	.word	0x00010000
	...
2000060c:	00020000 	.word	0x00020000
	...
20000618:	00030000 	.word	0x00030000
	...
20000624:	00ff0000 	.word	0x00ff0000
20000628:	00000000 	.word	0x00000000

2000062c <irq_handler_chain_first_slot>:
2000062c:	b501      	push	{r0, lr}
2000062e:	6848      	ldr	r0, [r1, #4]
20000630:	3101      	adds	r1, #1
20000632:	468e      	mov	lr, r1
20000634:	4700      	bx	r0

20000636 <irq_handler_chain_remove_tail>:
20000636:	4670      	mov	r0, lr
20000638:	3809      	subs	r0, #9
2000063a:	4901      	ldr	r1, [pc, #4]	@ (20000640 <irq_handler_chain_remove_tail+0xa>)
2000063c:	4788      	blx	r1
2000063e:	bd01      	pop	{r0, pc}
20000640:	10000825 	.word	0x10000825

20000644 <default_alarm_pool>:
	...
20000658:	20000688                                ... 

2000065c <stdio_uart>:
2000065c:	10001921 10001a29 10001971 10001a39     !...)...q...9...
2000066c:	00000000 00000100                       ........

20000674 <cDoorbellNum>:
20000674:	                                         .

20000675 <ucPrimaryCoreNum>:
20000675:	                                         ...

20000678 <malloc_mutex>:
	...

20000680 <print_mutex>:
	...
